	.text
	.syntax unified
	.eabi_attribute	67, "2.09"	@ Tag_conformance
	.cpu	cortex-m23
	.eabi_attribute	6, 16	@ Tag_CPU_arch
	.eabi_attribute	7, 77	@ Tag_CPU_arch_profile
	.eabi_attribute	8, 0	@ Tag_ARM_ISA_use
	.eabi_attribute	9, 3	@ Tag_THUMB_ISA_use
	.eabi_attribute	34, 0	@ Tag_CPU_unaligned_access
	.eabi_attribute	17, 1	@ Tag_ABI_PCS_GOT_use
	.eabi_attribute	20, 2	@ Tag_ABI_FP_denormal
	.eabi_attribute	21, 0	@ Tag_ABI_FP_exceptions
	.eabi_attribute	23, 1	@ Tag_ABI_FP_number_model
	.eabi_attribute	24, 1	@ Tag_ABI_align_needed
	.eabi_attribute	25, 1	@ Tag_ABI_align_preserved
	.eabi_attribute	38, 1	@ Tag_ABI_FP_16bit_format
	.eabi_attribute	18, 4	@ Tag_ABI_PCS_wchar_t
	.eabi_attribute	26, 2	@ Tag_ABI_enum_size
	.eabi_attribute	14, 0	@ Tag_ABI_PCS_R9_use
	.file	"wifi.c"
	.file	1 "C:\\Users\\shw26\\OneDrive\\Desktop\\2021\\2021-1\\\354\272\241\354\212\244\355\206\244\353\224\224\354\236\220\354\235\2702\\Nuvoton\\M2351_BSP_v3.00.004\\M2351Series_BSP_CMSIS_V3.00.004\\MyProject\\PulseMonitoring\\NonSecure" "WiFi/wifi.c"
	.file	2 "C:\\" "Keil_v5\\ARM\\ARMCLANG\\Bin\\..\\include\\stdint.h"
	.file	3 "C:\\Users\\shw26\\OneDrive\\Desktop\\2021\\2021-1\\\354\272\241\354\212\244\355\206\244\353\224\224\354\236\220\354\235\2702\\Nuvoton\\M2351_BSP_v3.00.004\\M2351Series_BSP_CMSIS_V3.00.004\\MyProject\\PulseMonitoring\\NonSecure" "../../../Library/Device/Nuvoton/M2351/Include/clk_reg.h"
	.file	4 "C:\\Users\\shw26\\OneDrive\\Desktop\\2021\\2021-1\\\354\272\241\354\212\244\355\206\244\353\224\224\354\236\220\354\235\2702\\Nuvoton\\M2351_BSP_v3.00.004\\M2351Series_BSP_CMSIS_V3.00.004\\MyProject\\PulseMonitoring\\NonSecure" "../../../Library/Device/Nuvoton/M2351/Include/uart_reg.h"
	.file	5 "C:\\Users\\shw26\\OneDrive\\Desktop\\2021\\2021-1\\\354\272\241\354\212\244\355\206\244\353\224\224\354\236\220\354\235\2702\\Nuvoton\\M2351_BSP_v3.00.004\\M2351Series_BSP_CMSIS_V3.00.004\\MyProject\\PulseMonitoring\\NonSecure" "../../../Library/Device/Nuvoton/M2351/Include/sys_reg.h"
	.file	6 "C:\\Users\\shw26\\OneDrive\\Desktop\\2021\\2021-1\\\354\272\241\354\212\244\355\206\244\353\224\224\354\236\220\354\235\2702\\Nuvoton\\M2351_BSP_v3.00.004\\M2351Series_BSP_CMSIS_V3.00.004\\MyProject\\PulseMonitoring\\NonSecure" "../../../Library/Device/Nuvoton/M2351/Include/gpio_reg.h"
	.file	7 "C:\\Users\\shw26\\OneDrive\\Desktop\\2021\\2021-1\\\354\272\241\354\212\244\355\206\244\353\224\224\354\236\220\354\235\2702\\Nuvoton\\M2351_BSP_v3.00.004\\M2351Series_BSP_CMSIS_V3.00.004\\MyProject\\PulseMonitoring\\NonSecure" "../../../Library/CMSIS/Include\\core_armv8mbl.h"
	.section	.text.printNetworkData,"ax",%progbits
	.hidden	printNetworkData                @ -- Begin function printNetworkData
	.globl	printNetworkData
	.p2align	2
	.type	printNetworkData,%function
	.code	16                              @ @printNetworkData
	.thumb_func
printNetworkData:
.Lfunc_begin0:
	.loc	1 59 0                          @ WiFi/wifi.c:59:0
	.fnstart
	.cfi_sections .debug_frame
	.cfi_startproc
@ %bb.0:
	.save	{r7, lr}
	push	{r7, lr}
	.cfi_def_cfa_offset 8
	.cfi_offset lr, -4
	.cfi_offset r7, -8
	.pad	#16
	sub	sp, #16
	.cfi_def_cfa_offset 24
	str	r0, [sp, #12]
.Ltmp0:
	.loc	1 60 2 prologue_end             @ WiFi/wifi.c:60:2
	ldr	r0, __arm_cp.0_0
	bl	printf
	.loc	1 62 27                         @ WiFi/wifi.c:62:27
	ldr	r1, [sp, #12]
	.loc	1 62 36 is_stmt 0               @ WiFi/wifi.c:62:36
	ldr	r1, [r1, #4]
	.loc	1 62 2                          @ WiFi/wifi.c:62:2
	ldr	r2, __arm_cp.0_1
	str	r0, [sp, #8]                    @ 4-byte Spill
	mov	r0, r2
	bl	printf
	.loc	1 63 27 is_stmt 1               @ WiFi/wifi.c:63:27
	ldr	r1, [sp, #12]
	.loc	1 63 36 is_stmt 0               @ WiFi/wifi.c:63:36
	ldr	r1, [r1]
	.loc	1 63 2                          @ WiFi/wifi.c:63:2
	ldr	r2, __arm_cp.0_2
	str	r0, [sp, #4]                    @ 4-byte Spill
	mov	r0, r2
	bl	printf
	.loc	1 64 2 is_stmt 1                @ WiFi/wifi.c:64:2
	add	sp, #16
	pop	{r7, pc}
.Ltmp1:
	.p2align	2
@ %bb.1:
	.loc	1 0 2 is_stmt 0                 @ WiFi/wifi.c:0:2
__arm_cp.0_0:
	.long	.L.str.5
.Lcpi_end0:
	.size	__arm_cp.0_0, .Lcpi_end0-__arm_cp.0_0
__arm_cp.0_1:
	.long	.L.str.6
.Lcpi_end1:
	.size	__arm_cp.0_1, .Lcpi_end1-__arm_cp.0_1
__arm_cp.0_2:
	.long	.L.str.7
.Lcpi_end2:
	.size	__arm_cp.0_2, .Lcpi_end2-__arm_cp.0_2
.Lfunc_end0:
	.size	printNetworkData, .Lfunc_end0-printNetworkData
	.cfi_endproc
	.cantunwind
	.fnend
                                        @ -- End function
	.section	.text.WIFI_Init,"ax",%progbits
	.hidden	WIFI_Init                       @ -- Begin function WIFI_Init
	.globl	WIFI_Init
	.p2align	2
	.type	WIFI_Init,%function
	.code	16                              @ @WIFI_Init
	.thumb_func
WIFI_Init:
.Lfunc_begin1:
	.loc	1 132 0 is_stmt 1               @ WiFi/wifi.c:132:0
	.fnstart
	.cfi_startproc
@ %bb.0:
	ldr	r0, __arm_cp.1_0
.Ltmp2:
	.loc	1 133 15 prologue_end           @ WiFi/wifi.c:133:15
	ldr	r1, [r0]
	movs	r2, #1
	lsls	r2, r2, #19
	orrs	r1, r2
	str	r1, [r0]
	ldr	r0, __arm_cp.1_1
	.loc	1 134 23                        @ WiFi/wifi.c:134:23
	ldr	r1, [r0]
	movs	r2, #3
	lsls	r3, r2, #26
	.loc	1 134 62 is_stmt 0              @ WiFi/wifi.c:134:62
	orrs	r1, r3
	.loc	1 134 15                        @ WiFi/wifi.c:134:15
	str	r1, [r0]
	ldr	r0, __arm_cp.1_2
	.loc	1 136 18 is_stmt 1              @ WiFi/wifi.c:136:18
	str	r2, [r0]
	ldr	r0, __arm_cp.1_3
	ldr	r1, __arm_cp.1_4
	.loc	1 137 18                        @ WiFi/wifi.c:137:18
	str	r1, [r0]
	ldr	r0, __arm_cp.1_5
	.loc	1 141 24                        @ WiFi/wifi.c:141:24
	ldr	r1, [r0]
	movs	r2, #85
	.loc	1 141 33 is_stmt 0              @ WiFi/wifi.c:141:33
	orrs	r1, r2
	movs	r2, #170
	.loc	1 141 95                        @ WiFi/wifi.c:141:95
	bics	r1, r2
	.loc	1 141 16                        @ WiFi/wifi.c:141:16
	str	r1, [r0]
	.loc	1 142 1 is_stmt 1               @ WiFi/wifi.c:142:1
	bx	lr
.Ltmp3:
	.p2align	2
@ %bb.1:
	.loc	1 0 1 is_stmt 0                 @ WiFi/wifi.c:0:1
__arm_cp.1_0:
	.long	1073742344                      @ 0x40000208
.Lcpi_end3:
	.size	__arm_cp.1_0, .Lcpi_end3-__arm_cp.1_0
__arm_cp.1_1:
	.long	1073742364                      @ 0x4000021c
.Lcpi_end4:
	.size	__arm_cp.1_1, .Lcpi_end4-__arm_cp.1_1
__arm_cp.1_2:
	.long	1342648332                      @ 0x5007300c
.Lcpi_end5:
	.size	__arm_cp.1_2, .Lcpi_end5-__arm_cp.1_2
__arm_cp.1_3:
	.long	1342648356                      @ 0x50073024
.Lcpi_end6:
	.size	__arm_cp.1_3, .Lcpi_end6-__arm_cp.1_3
__arm_cp.1_4:
	.long	805306470                       @ 0x30000066
.Lcpi_end7:
	.size	__arm_cp.1_4, .Lcpi_end7-__arm_cp.1_4
__arm_cp.1_5:
	.long	1073741896                      @ 0x40000048
.Lcpi_end8:
	.size	__arm_cp.1_5, .Lcpi_end8-__arm_cp.1_5
.Lfunc_end1:
	.size	WIFI_Init, .Lfunc_end1-WIFI_Init
	.cfi_endproc
	.cantunwind
	.fnend
                                        @ -- End function
	.section	.text.WIFI_Connect,"ax",%progbits
	.hidden	WIFI_Connect                    @ -- Begin function WIFI_Connect
	.globl	WIFI_Connect
	.p2align	2
	.type	WIFI_Connect,%function
	.code	16                              @ @WIFI_Connect
	.thumb_func
WIFI_Connect:
.Lfunc_begin2:
	.loc	1 145 0 is_stmt 1               @ WiFi/wifi.c:145:0
	.fnstart
	.cfi_startproc
@ %bb.0:
	.save	{r7, lr}
	push	{r7, lr}
	.cfi_def_cfa_offset 8
	.cfi_offset lr, -4
	.cfi_offset r7, -8
	.pad	#136
	sub	sp, #136
	.cfi_def_cfa_offset 144
.Ltmp4:
	.loc	1 149 3 prologue_end            @ WiFi/wifi.c:149:3
	ldr	r0, __arm_cp.2_0
	bl	printf
	.loc	1 150 3                         @ WiFi/wifi.c:150:3
	ldr	r1, __arm_cp.2_1
	str	r0, [sp, #112]                  @ 4-byte Spill
	mov	r0, r1
	bl	printf
	ldr	r1, __arm_cp.2_2
	movw	r2, #20480
.Ltmp5:
	.loc	1 153 2                         @ WiFi/wifi.c:153:2
	str	r2, [r1]
	ldr	r1, __arm_cp.2_3
	movs	r2, #1
.Ltmp6:
	.loc	1 155 10                        @ WiFi/wifi.c:155:10
	str	r2, [r1]
	ldr	r3, __arm_cp.2_4
	.loc	1 158 16                        @ WiFi/wifi.c:158:16
	str	r2, [r3]
	ldr	r2, __arm_cp.2_5
	.loc	1 159 2                         @ WiFi/wifi.c:159:2
	str	r0, [sp, #108]                  @ 4-byte Spill
	mov	r0, r2
	str	r1, [sp, #104]                  @ 4-byte Spill
	bl	CLK_SysTickLongDelay
	movs	r0, #0
	.loc	1 161 10                        @ WiFi/wifi.c:161:10
	ldr	r1, [sp, #104]                  @ 4-byte Reload
	str	r0, [r1]
	.loc	1 164 6                         @ WiFi/wifi.c:164:6
	str	r0, [sp, #128]
	.loc	1 165 6                         @ WiFi/wifi.c:165:6
	str	r0, [sp, #124]
	.loc	1 166 6                         @ WiFi/wifi.c:166:6
	str	r0, [sp, #120]
	.loc	1 167 6                         @ WiFi/wifi.c:167:6
	str	r0, [sp, #116]
	.loc	1 169 2                         @ WiFi/wifi.c:169:2
	b	.LBB2_1
.LBB2_1:                                @ =>This Loop Header: Depth=1
                                        @     Child Loop BB2_3 Depth 2
	.loc	1 169 9 is_stmt 0               @ WiFi/wifi.c:169:9
	ldr	r0, [sp, #116]
	.loc	1 169 2                         @ WiFi/wifi.c:169:2
	cmp	r0, #0
	beq	.LBB2_2
	b	.LBB2_44
.LBB2_2:                                @   in Loop: Header=BB2_1 Depth=1
.Ltmp7:
	.loc	1 173 3 is_stmt 1               @ WiFi/wifi.c:173:3
	b	.LBB2_3
.LBB2_3:                                @   Parent Loop BB2_1 Depth=1
                                        @ =>  This Inner Loop Header: Depth=2
	.loc	1 0 3 is_stmt 0                 @ WiFi/wifi.c:0:3
	ldr	r0, __arm_cp.2_6
	.loc	1 173 22                        @ WiFi/wifi.c:173:22
	ldr	r0, [r0]
	.loc	1 173 3                         @ WiFi/wifi.c:173:3
	lsls	r0, r0, #17
	cmp	r0, #0
	bpl	.LBB2_4
	b	.LBB2_41
.LBB2_4:                                @   in Loop: Header=BB2_3 Depth=2
	.loc	1 0 3                           @ WiFi/wifi.c:0:3
	movs	r0, #0
.Ltmp8:
	.loc	1 175 9 is_stmt 1               @ WiFi/wifi.c:175:9
	str	r0, [sp, #120]
	ldr	r0, __arm_cp.2_23
	.loc	1 176 22                        @ WiFi/wifi.c:176:22
	ldr	r0, [r0]
	add	r1, sp, #132
	.loc	1 176 9 is_stmt 0               @ WiFi/wifi.c:176:9
	strb	r0, [r1]
.Ltmp9:
	.loc	1 178 8 is_stmt 1               @ WiFi/wifi.c:178:8
	ldr	r0, [sp, #124]
	.loc	1 178 18 is_stmt 0              @ WiFi/wifi.c:178:18
	cmp	r0, #0
	bne	.LBB2_8
	b	.LBB2_5
.LBB2_5:                                @   in Loop: Header=BB2_3 Depth=2
	.loc	1 0 18                          @ WiFi/wifi.c:0:18
	add	r0, sp, #132
	.loc	1 178 21                        @ WiFi/wifi.c:178:21
	ldrb	r0, [r0]
	.loc	1 178 33                        @ WiFi/wifi.c:178:33
	cmp	r0, #114
	bne	.LBB2_8
	b	.LBB2_6
.LBB2_6:                                @   in Loop: Header=BB2_3 Depth=2
	.loc	1 178 36                        @ WiFi/wifi.c:178:36
	ldr	r0, [sp, #120]
.Ltmp10:
	.loc	1 178 8                         @ WiFi/wifi.c:178:8
	cmp	r0, #0
	bne	.LBB2_8
	b	.LBB2_7
.LBB2_7:                                @   in Loop: Header=BB2_3 Depth=2
	.loc	1 0 8                           @ WiFi/wifi.c:0:8
	movs	r0, #1
.Ltmp11:
	.loc	1 180 10 is_stmt 1              @ WiFi/wifi.c:180:10
	str	r0, [sp, #124]
	.loc	1 181 10                        @ WiFi/wifi.c:181:10
	str	r0, [sp, #120]
	.loc	1 183 4                         @ WiFi/wifi.c:183:4
	b	.LBB2_8
.Ltmp12:
.LBB2_8:                                @   in Loop: Header=BB2_3 Depth=2
	.loc	1 184 8                         @ WiFi/wifi.c:184:8
	ldr	r0, [sp, #124]
	.loc	1 184 18 is_stmt 0              @ WiFi/wifi.c:184:18
	cmp	r0, #1
	bne	.LBB2_12
	b	.LBB2_9
.LBB2_9:                                @   in Loop: Header=BB2_3 Depth=2
	.loc	1 0 18                          @ WiFi/wifi.c:0:18
	add	r0, sp, #132
	.loc	1 184 21                        @ WiFi/wifi.c:184:21
	ldrb	r0, [r0]
	.loc	1 184 33                        @ WiFi/wifi.c:184:33
	cmp	r0, #101
	bne	.LBB2_12
	b	.LBB2_10
.LBB2_10:                               @   in Loop: Header=BB2_3 Depth=2
	.loc	1 184 36                        @ WiFi/wifi.c:184:36
	ldr	r0, [sp, #120]
.Ltmp13:
	.loc	1 184 8                         @ WiFi/wifi.c:184:8
	cmp	r0, #0
	bne	.LBB2_12
	b	.LBB2_11
.LBB2_11:                               @   in Loop: Header=BB2_3 Depth=2
	.loc	1 0 8                           @ WiFi/wifi.c:0:8
	movs	r0, #2
.Ltmp14:
	.loc	1 186 10 is_stmt 1              @ WiFi/wifi.c:186:10
	str	r0, [sp, #124]
	movs	r0, #1
	.loc	1 187 10                        @ WiFi/wifi.c:187:10
	str	r0, [sp, #120]
	.loc	1 189 4                         @ WiFi/wifi.c:189:4
	b	.LBB2_16
.Ltmp15:
.LBB2_12:                               @   in Loop: Header=BB2_3 Depth=2
	.loc	1 190 13                        @ WiFi/wifi.c:190:13
	ldr	r0, [sp, #124]
	.loc	1 190 23 is_stmt 0              @ WiFi/wifi.c:190:23
	cmp	r0, #1
	bne	.LBB2_15
	b	.LBB2_13
.LBB2_13:                               @   in Loop: Header=BB2_3 Depth=2
	.loc	1 190 26                        @ WiFi/wifi.c:190:26
	ldr	r0, [sp, #120]
.Ltmp16:
	.loc	1 190 13                        @ WiFi/wifi.c:190:13
	cmp	r0, #0
	bne	.LBB2_15
	b	.LBB2_14
.LBB2_14:                               @   in Loop: Header=BB2_3 Depth=2
	.loc	1 0 13                          @ WiFi/wifi.c:0:13
	movs	r0, #0
.Ltmp17:
	.loc	1 191 10 is_stmt 1              @ WiFi/wifi.c:191:10
	str	r0, [sp, #124]
	.loc	1 191 5 is_stmt 0               @ WiFi/wifi.c:191:5
	b	.LBB2_15
.Ltmp18:
.LBB2_15:                               @   in Loop: Header=BB2_3 Depth=2
	.loc	1 0 5                           @ WiFi/wifi.c:0:5
	b	.LBB2_16
.LBB2_16:                               @   in Loop: Header=BB2_3 Depth=2
.Ltmp19:
	.loc	1 193 8 is_stmt 1               @ WiFi/wifi.c:193:8
	ldr	r0, [sp, #124]
	.loc	1 193 18 is_stmt 0              @ WiFi/wifi.c:193:18
	cmp	r0, #2
	bne	.LBB2_20
	b	.LBB2_17
.LBB2_17:                               @   in Loop: Header=BB2_3 Depth=2
	.loc	1 0 18                          @ WiFi/wifi.c:0:18
	add	r0, sp, #132
	.loc	1 193 21                        @ WiFi/wifi.c:193:21
	ldrb	r0, [r0]
	.loc	1 193 33                        @ WiFi/wifi.c:193:33
	cmp	r0, #97
	bne	.LBB2_20
	b	.LBB2_18
.LBB2_18:                               @   in Loop: Header=BB2_3 Depth=2
	.loc	1 193 36                        @ WiFi/wifi.c:193:36
	ldr	r0, [sp, #120]
.Ltmp20:
	.loc	1 193 8                         @ WiFi/wifi.c:193:8
	cmp	r0, #0
	bne	.LBB2_20
	b	.LBB2_19
.LBB2_19:                               @   in Loop: Header=BB2_3 Depth=2
	.loc	1 0 8                           @ WiFi/wifi.c:0:8
	movs	r0, #3
.Ltmp21:
	.loc	1 195 10 is_stmt 1              @ WiFi/wifi.c:195:10
	str	r0, [sp, #124]
	movs	r0, #1
	.loc	1 196 10                        @ WiFi/wifi.c:196:10
	str	r0, [sp, #120]
	.loc	1 198 4                         @ WiFi/wifi.c:198:4
	b	.LBB2_24
.Ltmp22:
.LBB2_20:                               @   in Loop: Header=BB2_3 Depth=2
	.loc	1 199 13                        @ WiFi/wifi.c:199:13
	ldr	r0, [sp, #124]
	.loc	1 199 23 is_stmt 0              @ WiFi/wifi.c:199:23
	cmp	r0, #2
	bne	.LBB2_23
	b	.LBB2_21
.LBB2_21:                               @   in Loop: Header=BB2_3 Depth=2
	.loc	1 199 26                        @ WiFi/wifi.c:199:26
	ldr	r0, [sp, #120]
.Ltmp23:
	.loc	1 199 13                        @ WiFi/wifi.c:199:13
	cmp	r0, #0
	bne	.LBB2_23
	b	.LBB2_22
.LBB2_22:                               @   in Loop: Header=BB2_3 Depth=2
	.loc	1 0 13                          @ WiFi/wifi.c:0:13
	movs	r0, #0
.Ltmp24:
	.loc	1 200 10 is_stmt 1              @ WiFi/wifi.c:200:10
	str	r0, [sp, #124]
	.loc	1 200 5 is_stmt 0               @ WiFi/wifi.c:200:5
	b	.LBB2_23
.Ltmp25:
.LBB2_23:                               @   in Loop: Header=BB2_3 Depth=2
	.loc	1 0 5                           @ WiFi/wifi.c:0:5
	b	.LBB2_24
.LBB2_24:                               @   in Loop: Header=BB2_3 Depth=2
.Ltmp26:
	.loc	1 202 8 is_stmt 1               @ WiFi/wifi.c:202:8
	ldr	r0, [sp, #124]
	.loc	1 202 18 is_stmt 0              @ WiFi/wifi.c:202:18
	cmp	r0, #3
	bne	.LBB2_28
	b	.LBB2_25
.LBB2_25:                               @   in Loop: Header=BB2_3 Depth=2
	.loc	1 0 18                          @ WiFi/wifi.c:0:18
	add	r0, sp, #132
	.loc	1 202 21                        @ WiFi/wifi.c:202:21
	ldrb	r0, [r0]
	.loc	1 202 33                        @ WiFi/wifi.c:202:33
	cmp	r0, #100
	bne	.LBB2_28
	b	.LBB2_26
.LBB2_26:                               @   in Loop: Header=BB2_3 Depth=2
	.loc	1 202 36                        @ WiFi/wifi.c:202:36
	ldr	r0, [sp, #120]
.Ltmp27:
	.loc	1 202 8                         @ WiFi/wifi.c:202:8
	cmp	r0, #0
	bne	.LBB2_28
	b	.LBB2_27
.LBB2_27:                               @   in Loop: Header=BB2_3 Depth=2
	.loc	1 0 8                           @ WiFi/wifi.c:0:8
	movs	r0, #4
.Ltmp28:
	.loc	1 204 10 is_stmt 1              @ WiFi/wifi.c:204:10
	str	r0, [sp, #124]
	movs	r0, #1
	.loc	1 205 10                        @ WiFi/wifi.c:205:10
	str	r0, [sp, #120]
	.loc	1 207 4                         @ WiFi/wifi.c:207:4
	b	.LBB2_32
.Ltmp29:
.LBB2_28:                               @   in Loop: Header=BB2_3 Depth=2
	.loc	1 208 13                        @ WiFi/wifi.c:208:13
	ldr	r0, [sp, #124]
	.loc	1 208 23 is_stmt 0              @ WiFi/wifi.c:208:23
	cmp	r0, #3
	bne	.LBB2_31
	b	.LBB2_29
.LBB2_29:                               @   in Loop: Header=BB2_3 Depth=2
	.loc	1 208 26                        @ WiFi/wifi.c:208:26
	ldr	r0, [sp, #120]
.Ltmp30:
	.loc	1 208 13                        @ WiFi/wifi.c:208:13
	cmp	r0, #0
	bne	.LBB2_31
	b	.LBB2_30
.LBB2_30:                               @   in Loop: Header=BB2_3 Depth=2
	.loc	1 0 13                          @ WiFi/wifi.c:0:13
	movs	r0, #0
.Ltmp31:
	.loc	1 209 10 is_stmt 1              @ WiFi/wifi.c:209:10
	str	r0, [sp, #124]
	.loc	1 209 5 is_stmt 0               @ WiFi/wifi.c:209:5
	b	.LBB2_31
.Ltmp32:
.LBB2_31:                               @   in Loop: Header=BB2_3 Depth=2
	.loc	1 0 5                           @ WiFi/wifi.c:0:5
	b	.LBB2_32
.LBB2_32:                               @   in Loop: Header=BB2_3 Depth=2
.Ltmp33:
	.loc	1 211 8 is_stmt 1               @ WiFi/wifi.c:211:8
	ldr	r0, [sp, #124]
	.loc	1 211 18 is_stmt 0              @ WiFi/wifi.c:211:18
	cmp	r0, #4
	bne	.LBB2_36
	b	.LBB2_33
.LBB2_33:                               @   in Loop: Header=BB2_3 Depth=2
	.loc	1 0 18                          @ WiFi/wifi.c:0:18
	add	r0, sp, #132
	.loc	1 211 21                        @ WiFi/wifi.c:211:21
	ldrb	r0, [r0]
	.loc	1 211 33                        @ WiFi/wifi.c:211:33
	cmp	r0, #121
	bne	.LBB2_36
	b	.LBB2_34
.LBB2_34:                               @   in Loop: Header=BB2_3 Depth=2
	.loc	1 211 36                        @ WiFi/wifi.c:211:36
	ldr	r0, [sp, #120]
.Ltmp34:
	.loc	1 211 8                         @ WiFi/wifi.c:211:8
	cmp	r0, #0
	bne	.LBB2_36
	b	.LBB2_35
.LBB2_35:                               @   in Loop: Header=BB2_3 Depth=2
	.loc	1 0 8                           @ WiFi/wifi.c:0:8
	movs	r0, #1
.Ltmp35:
	.loc	1 213 11 is_stmt 1              @ WiFi/wifi.c:213:11
	str	r0, [sp, #128]
	.loc	1 214 10                        @ WiFi/wifi.c:214:10
	str	r0, [sp, #120]
	.loc	1 216 4                         @ WiFi/wifi.c:216:4
	b	.LBB2_40
.Ltmp36:
.LBB2_36:                               @   in Loop: Header=BB2_3 Depth=2
	.loc	1 217 13                        @ WiFi/wifi.c:217:13
	ldr	r0, [sp, #124]
	.loc	1 217 23 is_stmt 0              @ WiFi/wifi.c:217:23
	cmp	r0, #4
	bne	.LBB2_39
	b	.LBB2_37
.LBB2_37:                               @   in Loop: Header=BB2_3 Depth=2
	.loc	1 217 26                        @ WiFi/wifi.c:217:26
	ldr	r0, [sp, #120]
.Ltmp37:
	.loc	1 217 13                        @ WiFi/wifi.c:217:13
	cmp	r0, #0
	bne	.LBB2_39
	b	.LBB2_38
.LBB2_38:                               @   in Loop: Header=BB2_3 Depth=2
	.loc	1 0 13                          @ WiFi/wifi.c:0:13
	movs	r0, #0
.Ltmp38:
	.loc	1 218 10 is_stmt 1              @ WiFi/wifi.c:218:10
	str	r0, [sp, #124]
	.loc	1 218 5 is_stmt 0               @ WiFi/wifi.c:218:5
	b	.LBB2_39
.Ltmp39:
.LBB2_39:                               @   in Loop: Header=BB2_3 Depth=2
	.loc	1 0 5                           @ WiFi/wifi.c:0:5
	b	.LBB2_40
.LBB2_40:                               @   in Loop: Header=BB2_3 Depth=2
	.loc	1 173 3 is_stmt 1               @ WiFi/wifi.c:173:3
	b	.LBB2_3
.LBB2_41:                               @   in Loop: Header=BB2_1 Depth=1
.Ltmp40:
	.loc	1 220 7                         @ WiFi/wifi.c:220:7
	ldr	r0, [sp, #128]
.Ltmp41:
	.loc	1 220 7 is_stmt 0               @ WiFi/wifi.c:220:7
	cmp	r0, #0
	bne	.LBB2_42
	b	.LBB2_43
.LBB2_42:                               @   in Loop: Header=BB2_1 Depth=1
.Ltmp42:
	.loc	1 223 36 is_stmt 1              @ WiFi/wifi.c:223:36
	ldr	r0, __arm_cp.2_7
	str	r0, [sp, #100]                  @ 4-byte Spill
	bl	strlen
	movs	r1, #0
	.loc	1 223 4 is_stmt 0               @ WiFi/wifi.c:223:4
	str	r0, [sp, #96]                   @ 4-byte Spill
	mov	r0, r1
	ldr	r2, [sp, #100]                  @ 4-byte Reload
	str	r1, [sp, #92]                   @ 4-byte Spill
	mov	r1, r2
	ldr	r2, [sp, #96]                   @ 4-byte Reload
	bl	WIFI_Write
	.loc	1 224 4 is_stmt 1               @ WiFi/wifi.c:224:4
	ldr	r0, [sp, #92]                   @ 4-byte Reload
	bl	WIFI_Read
	.loc	1 226 45                        @ WiFi/wifi.c:226:45
	ldr	r0, __arm_cp.2_8
	str	r0, [sp, #88]                   @ 4-byte Spill
	bl	strlen
	.loc	1 226 4 is_stmt 0               @ WiFi/wifi.c:226:4
	ldr	r1, [sp, #92]                   @ 4-byte Reload
	str	r0, [sp, #84]                   @ 4-byte Spill
	mov	r0, r1
	ldr	r1, [sp, #88]                   @ 4-byte Reload
	ldr	r2, [sp, #84]                   @ 4-byte Reload
	bl	WIFI_Write
	.loc	1 227 4 is_stmt 1               @ WiFi/wifi.c:227:4
	ldr	r0, [sp, #92]                   @ 4-byte Reload
	bl	WIFI_Read
.Ltmp43:
	.loc	1 229 5                         @ WiFi/wifi.c:229:5
	ldr	r0, __arm_cp.2_9
	bl	printf
.Ltmp44:
	.loc	1 231 43                        @ WiFi/wifi.c:231:43
	ldr	r1, __arm_cp.2_10
	str	r0, [sp, #80]                   @ 4-byte Spill
	mov	r0, r1
	str	r1, [sp, #76]                   @ 4-byte Spill
	bl	strlen
	.loc	1 231 4 is_stmt 0               @ WiFi/wifi.c:231:4
	ldr	r1, [sp, #92]                   @ 4-byte Reload
	str	r0, [sp, #72]                   @ 4-byte Spill
	mov	r0, r1
	ldr	r1, [sp, #76]                   @ 4-byte Reload
	ldr	r2, [sp, #72]                   @ 4-byte Reload
	bl	WIFI_Write
	.loc	1 232 4 is_stmt 1               @ WiFi/wifi.c:232:4
	ldr	r0, [sp, #92]                   @ 4-byte Reload
	bl	WIFI_Read
.Ltmp45:
	.loc	1 234 5                         @ WiFi/wifi.c:234:5
	ldr	r0, __arm_cp.2_11
	bl	printf
.Ltmp46:
	.loc	1 236 44                        @ WiFi/wifi.c:236:44
	ldr	r1, __arm_cp.2_12
	str	r0, [sp, #68]                   @ 4-byte Spill
	mov	r0, r1
	str	r1, [sp, #64]                   @ 4-byte Spill
	bl	strlen
	.loc	1 236 4 is_stmt 0               @ WiFi/wifi.c:236:4
	ldr	r1, [sp, #92]                   @ 4-byte Reload
	str	r0, [sp, #60]                   @ 4-byte Spill
	mov	r0, r1
	ldr	r1, [sp, #64]                   @ 4-byte Reload
	ldr	r2, [sp, #60]                   @ 4-byte Reload
	bl	WIFI_Write
	.loc	1 237 4 is_stmt 1               @ WiFi/wifi.c:237:4
	ldr	r0, [sp, #92]                   @ 4-byte Reload
	bl	WIFI_Read
.Ltmp47:
	.loc	1 239 5                         @ WiFi/wifi.c:239:5
	ldr	r0, __arm_cp.2_13
	bl	printf
.Ltmp48:
	.loc	1 245 45                        @ WiFi/wifi.c:245:45
	ldr	r1, __arm_cp.2_14
	str	r0, [sp, #56]                   @ 4-byte Spill
	mov	r0, r1
	str	r1, [sp, #52]                   @ 4-byte Spill
	bl	strlen
	.loc	1 245 4 is_stmt 0               @ WiFi/wifi.c:245:4
	ldr	r1, [sp, #92]                   @ 4-byte Reload
	str	r0, [sp, #48]                   @ 4-byte Spill
	mov	r0, r1
	ldr	r1, [sp, #52]                   @ 4-byte Reload
	ldr	r2, [sp, #48]                   @ 4-byte Reload
	bl	WIFI_Write
	.loc	1 246 4 is_stmt 1               @ WiFi/wifi.c:246:4
	ldr	r0, [sp, #92]                   @ 4-byte Reload
	bl	WIFI_Read
.Ltmp49:
	.loc	1 248 5                         @ WiFi/wifi.c:248:5
	ldr	r0, __arm_cp.2_15
	bl	printf
.Ltmp50:
	.loc	1 250 43                        @ WiFi/wifi.c:250:43
	ldr	r1, __arm_cp.2_16
	str	r0, [sp, #44]                   @ 4-byte Spill
	mov	r0, r1
	str	r1, [sp, #40]                   @ 4-byte Spill
	bl	strlen
	.loc	1 250 4 is_stmt 0               @ WiFi/wifi.c:250:4
	ldr	r1, [sp, #92]                   @ 4-byte Reload
	str	r0, [sp, #36]                   @ 4-byte Spill
	mov	r0, r1
	ldr	r1, [sp, #40]                   @ 4-byte Reload
	ldr	r2, [sp, #36]                   @ 4-byte Reload
	bl	WIFI_Write
	.loc	1 251 4 is_stmt 1               @ WiFi/wifi.c:251:4
	ldr	r0, [sp, #92]                   @ 4-byte Reload
	bl	WIFI_Read
	.loc	1 253 43                        @ WiFi/wifi.c:253:43
	ldr	r0, __arm_cp.2_17
	str	r0, [sp, #32]                   @ 4-byte Spill
	bl	strlen
	.loc	1 253 4 is_stmt 0               @ WiFi/wifi.c:253:4
	ldr	r1, [sp, #92]                   @ 4-byte Reload
	str	r0, [sp, #28]                   @ 4-byte Spill
	mov	r0, r1
	ldr	r1, [sp, #32]                   @ 4-byte Reload
	ldr	r2, [sp, #28]                   @ 4-byte Reload
	bl	WIFI_Write
	.loc	1 254 4 is_stmt 1               @ WiFi/wifi.c:254:4
	ldr	r0, [sp, #92]                   @ 4-byte Reload
	bl	WIFI_Read
.Ltmp51:
	.loc	1 256 5                         @ WiFi/wifi.c:256:5
	ldr	r0, __arm_cp.2_18
	bl	printf
.Ltmp52:
	.loc	1 258 43                        @ WiFi/wifi.c:258:43
	ldr	r1, __arm_cp.2_19
	str	r0, [sp, #24]                   @ 4-byte Spill
	mov	r0, r1
	str	r1, [sp, #20]                   @ 4-byte Spill
	bl	strlen
	.loc	1 258 4 is_stmt 0               @ WiFi/wifi.c:258:4
	ldr	r1, [sp, #92]                   @ 4-byte Reload
	str	r0, [sp, #16]                   @ 4-byte Spill
	mov	r0, r1
	ldr	r1, [sp, #20]                   @ 4-byte Reload
	ldr	r2, [sp, #16]                   @ 4-byte Reload
	bl	WIFI_Write
	.loc	1 259 4 is_stmt 1               @ WiFi/wifi.c:259:4
	ldr	r0, [sp, #92]                   @ 4-byte Reload
	bl	WIFI_Read
.Ltmp53:
	.loc	1 261 5                         @ WiFi/wifi.c:261:5
	ldr	r0, __arm_cp.2_20
	bl	printf
.Ltmp54:
	.loc	1 269 5                         @ WiFi/wifi.c:269:5
	ldr	r1, __arm_cp.2_1
	str	r0, [sp, #12]                   @ 4-byte Spill
	mov	r0, r1
	bl	printf
	.loc	1 270 5                         @ WiFi/wifi.c:270:5
	ldr	r1, __arm_cp.2_21
	str	r0, [sp, #8]                    @ 4-byte Spill
	mov	r0, r1
	bl	printf
	.loc	1 271 5                         @ WiFi/wifi.c:271:5
	ldr	r1, __arm_cp.2_22
	str	r0, [sp, #4]                    @ 4-byte Spill
	mov	r0, r1
	bl	printf
	movs	r1, #1
.Ltmp55:
	.loc	1 273 11                        @ WiFi/wifi.c:273:11
	str	r1, [sp, #116]
	.loc	1 274 3                         @ WiFi/wifi.c:274:3
	b	.LBB2_43
.Ltmp56:
.LBB2_43:                               @   in Loop: Header=BB2_1 Depth=1
	.loc	1 169 2                         @ WiFi/wifi.c:169:2
	b	.LBB2_1
.LBB2_44:
	.loc	1 276 1                         @ WiFi/wifi.c:276:1
	add	sp, #136
	pop	{r7, pc}
.Ltmp57:
	.p2align	2
@ %bb.45:
	.loc	1 0 1 is_stmt 0                 @ WiFi/wifi.c:0:1
__arm_cp.2_0:
	.long	.L.str.8
.Lcpi_end9:
	.size	__arm_cp.2_0, .Lcpi_end9-__arm_cp.2_0
__arm_cp.2_1:
	.long	.L.str.9
.Lcpi_end10:
	.size	__arm_cp.2_1, .Lcpi_end10-__arm_cp.2_1
__arm_cp.2_2:
	.long	1342193856                      @ 0x500040c0
.Lcpi_end11:
	.size	__arm_cp.2_2, .Lcpi_end11-__arm_cp.2_2
__arm_cp.2_3:
	.long	1342195932                      @ 0x500048dc
.Lcpi_end12:
	.size	__arm_cp.2_3, .Lcpi_end12-__arm_cp.2_3
__arm_cp.2_4:
	.long	1342195928                      @ 0x500048d8
.Lcpi_end13:
	.size	__arm_cp.2_4, .Lcpi_end13-__arm_cp.2_4
__arm_cp.2_5:
	.long	1000000                         @ 0xf4240
.Lcpi_end14:
	.size	__arm_cp.2_5, .Lcpi_end14-__arm_cp.2_5
__arm_cp.2_6:
	.long	1342648344                      @ 0x50073018
.Lcpi_end15:
	.size	__arm_cp.2_6, .Lcpi_end15-__arm_cp.2_6
__arm_cp.2_7:
	.long	ATCommand_AT
.Lcpi_end16:
	.size	__arm_cp.2_7, .Lcpi_end16-__arm_cp.2_7
__arm_cp.2_8:
	.long	ATCommand_CWMODE_SET1
.Lcpi_end17:
	.size	__arm_cp.2_8, .Lcpi_end17-__arm_cp.2_8
__arm_cp.2_9:
	.long	.L.str.10
.Lcpi_end18:
	.size	__arm_cp.2_9, .Lcpi_end18-__arm_cp.2_9
__arm_cp.2_10:
	.long	ATCommand_CWJAP_SET
.Lcpi_end19:
	.size	__arm_cp.2_10, .Lcpi_end19-__arm_cp.2_10
__arm_cp.2_11:
	.long	.L.str.11
.Lcpi_end20:
	.size	__arm_cp.2_11, .Lcpi_end20-__arm_cp.2_11
__arm_cp.2_12:
	.long	ATCommand_CIPSTA_SET
.Lcpi_end21:
	.size	__arm_cp.2_12, .Lcpi_end21-__arm_cp.2_12
__arm_cp.2_13:
	.long	.L.str.12
.Lcpi_end22:
	.size	__arm_cp.2_13, .Lcpi_end22-__arm_cp.2_13
__arm_cp.2_14:
	.long	ATCommand_CIPMUX_SET1
.Lcpi_end23:
	.size	__arm_cp.2_14, .Lcpi_end23-__arm_cp.2_14
__arm_cp.2_15:
	.long	.L.str.13
.Lcpi_end24:
	.size	__arm_cp.2_15, .Lcpi_end24-__arm_cp.2_15
__arm_cp.2_16:
	.long	ATCommand_CIPSTATUS
.Lcpi_end25:
	.size	__arm_cp.2_16, .Lcpi_end25-__arm_cp.2_16
__arm_cp.2_17:
	.long	ATCommand_CIPSTART0
.Lcpi_end26:
	.size	__arm_cp.2_17, .Lcpi_end26-__arm_cp.2_17
__arm_cp.2_18:
	.long	.L.str.14
.Lcpi_end27:
	.size	__arm_cp.2_18, .Lcpi_end27-__arm_cp.2_18
__arm_cp.2_19:
	.long	ATCommand_CIPSTART1
.Lcpi_end28:
	.size	__arm_cp.2_19, .Lcpi_end28-__arm_cp.2_19
__arm_cp.2_20:
	.long	.L.str.15
.Lcpi_end29:
	.size	__arm_cp.2_20, .Lcpi_end29-__arm_cp.2_20
__arm_cp.2_21:
	.long	.L.str.16
.Lcpi_end30:
	.size	__arm_cp.2_21, .Lcpi_end30-__arm_cp.2_21
__arm_cp.2_22:
	.long	.L.str.17
.Lcpi_end31:
	.size	__arm_cp.2_22, .Lcpi_end31-__arm_cp.2_22
__arm_cp.2_23:
	.long	1342648320                      @ 0x50073000
.Lcpi_end32:
	.size	__arm_cp.2_23, .Lcpi_end32-__arm_cp.2_23
.Lfunc_end2:
	.size	WIFI_Connect, .Lfunc_end2-WIFI_Connect
	.cfi_endproc
	.cantunwind
	.fnend
                                        @ -- End function
	.section	.text.CLK_SysTickLongDelay,"ax",%progbits
	.p2align	2                               @ -- Begin function CLK_SysTickLongDelay
	.type	CLK_SysTickLongDelay,%function
	.code	16                              @ @CLK_SysTickLongDelay
	.thumb_func
CLK_SysTickLongDelay:
.Lfunc_begin3:
	.file	8 "C:\\Users\\shw26\\OneDrive\\Desktop\\2021\\2021-1\\\354\272\241\354\212\244\355\206\244\353\224\224\354\236\220\354\235\2702\\Nuvoton\\M2351_BSP_v3.00.004\\M2351Series_BSP_CMSIS_V3.00.004\\MyProject\\PulseMonitoring\\NonSecure" "../../../Library/StdDriver/inc\\clk.h"
	.loc	8 728 0 is_stmt 1               @ ../../../Library/StdDriver/inc\clk.h:728:0
	.fnstart
	.cfi_startproc
@ %bb.0:
	.pad	#8
	sub	sp, #8
	.cfi_def_cfa_offset 8
	str	r0, [sp, #4]
	movs	r0, #1
	lsls	r0, r0, #16
.Ltmp58:
	.loc	8 732 14 prologue_end           @ ../../../Library/StdDriver/inc\clk.h:732:14
	str	r0, [sp]
	.loc	8 734 5                         @ ../../../Library/StdDriver/inc\clk.h:734:5
	b	.LBB3_1
.LBB3_1:                                @ =>This Loop Header: Depth=1
                                        @     Child Loop BB3_5 Depth 2
.Ltmp59:
	.loc	8 736 12                        @ ../../../Library/StdDriver/inc\clk.h:736:12
	ldr	r0, [sp, #4]
	.loc	8 736 17 is_stmt 0              @ ../../../Library/StdDriver/inc\clk.h:736:17
	ldr	r1, [sp]
.Ltmp60:
	.loc	8 736 12                        @ ../../../Library/StdDriver/inc\clk.h:736:12
	cmp	r0, r1
	bls	.LBB3_3
	b	.LBB3_2
.LBB3_2:                                @   in Loop: Header=BB3_1 Depth=1
.Ltmp61:
	.loc	8 738 19 is_stmt 1              @ ../../../Library/StdDriver/inc\clk.h:738:19
	ldr	r0, [sp]
	.loc	8 738 16 is_stmt 0              @ ../../../Library/StdDriver/inc\clk.h:738:16
	ldr	r1, [sp, #4]
	subs	r0, r1, r0
	str	r0, [sp, #4]
	.loc	8 739 9 is_stmt 1               @ ../../../Library/StdDriver/inc\clk.h:739:9
	b	.LBB3_4
.Ltmp62:
.LBB3_3:                                @   in Loop: Header=BB3_1 Depth=1
	.loc	8 742 24                        @ ../../../Library/StdDriver/inc\clk.h:742:24
	ldr	r0, [sp, #4]
	.loc	8 742 22 is_stmt 0              @ ../../../Library/StdDriver/inc\clk.h:742:22
	str	r0, [sp]
	movs	r0, #0
	.loc	8 743 16 is_stmt 1              @ ../../../Library/StdDriver/inc\clk.h:743:16
	str	r0, [sp, #4]
	b	.LBB3_4
.Ltmp63:
.LBB3_4:                                @   in Loop: Header=BB3_1 Depth=1
	.loc	8 746 25                        @ ../../../Library/StdDriver/inc\clk.h:746:25
	ldr	r0, [sp]
	.loc	8 746 36 is_stmt 0              @ ../../../Library/StdDriver/inc\clk.h:746:36
	ldr	r1, __arm_cp.3_0
	ldr	r1, [r1]
	.loc	8 746 34                        @ ../../../Library/StdDriver/inc\clk.h:746:34
	muls	r1, r0, r1
	ldr	r0, __arm_cp.3_1
	.loc	8 746 23                        @ ../../../Library/StdDriver/inc\clk.h:746:23
	str	r1, [r0]
	ldr	r0, __arm_cp.3_2
	movs	r1, #0
	.loc	8 747 23 is_stmt 1              @ ../../../Library/StdDriver/inc\clk.h:747:23
	str	r1, [r0]
	ldr	r0, __arm_cp.3_3
	movs	r1, #5
	.loc	8 748 23                        @ ../../../Library/StdDriver/inc\clk.h:748:23
	str	r1, [r0]
	.loc	8 751 9                         @ ../../../Library/StdDriver/inc\clk.h:751:9
	b	.LBB3_5
.LBB3_5:                                @   Parent Loop BB3_1 Depth=1
                                        @ =>  This Inner Loop Header: Depth=2
	.loc	8 0 9 is_stmt 0                 @ ../../../Library/StdDriver/inc\clk.h:0:9
	ldr	r0, __arm_cp.3_3
	.loc	8 751 25                        @ ../../../Library/StdDriver/inc\clk.h:751:25
	ldr	r0, [r0]
	.loc	8 751 9                         @ ../../../Library/StdDriver/inc\clk.h:751:9
	lsls	r0, r0, #15
	cmp	r0, #0
	bmi	.LBB3_7
	b	.LBB3_6
.LBB3_6:                                @   in Loop: Header=BB3_5 Depth=2
	b	.LBB3_5
.LBB3_7:                                @   in Loop: Header=BB3_1 Depth=1
	.loc	8 0 9                           @ ../../../Library/StdDriver/inc\clk.h:0:9
	ldr	r0, __arm_cp.3_3
	movs	r1, #0
	.loc	8 754 23 is_stmt 1              @ ../../../Library/StdDriver/inc\clk.h:754:23
	str	r1, [r0]
	.loc	8 756 5                         @ ../../../Library/StdDriver/inc\clk.h:756:5
	b	.LBB3_8
.Ltmp64:
.LBB3_8:                                @   in Loop: Header=BB3_1 Depth=1
	.loc	8 757 11                        @ ../../../Library/StdDriver/inc\clk.h:757:11
	ldr	r0, [sp, #4]
.Ltmp65:
	.loc	8 756 5                         @ ../../../Library/StdDriver/inc\clk.h:756:5
	cmp	r0, #0
	bne	.LBB3_1
	b	.LBB3_9
.Ltmp66:
.LBB3_9:
	.loc	8 759 1                         @ ../../../Library/StdDriver/inc\clk.h:759:1
	add	sp, #8
	bx	lr
.Ltmp67:
	.p2align	2
@ %bb.10:
	.loc	8 0 1 is_stmt 0                 @ ../../../Library/StdDriver/inc\clk.h:0:1
__arm_cp.3_0:
	.long	CyclesPerUs
.Lcpi_end33:
	.size	__arm_cp.3_0, .Lcpi_end33-__arm_cp.3_0
__arm_cp.3_1:
	.long	3758153748                      @ 0xe000e014
.Lcpi_end34:
	.size	__arm_cp.3_1, .Lcpi_end34-__arm_cp.3_1
__arm_cp.3_2:
	.long	3758153752                      @ 0xe000e018
.Lcpi_end35:
	.size	__arm_cp.3_2, .Lcpi_end35-__arm_cp.3_2
__arm_cp.3_3:
	.long	3758153744                      @ 0xe000e010
.Lcpi_end36:
	.size	__arm_cp.3_3, .Lcpi_end36-__arm_cp.3_3
.Lfunc_end3:
	.size	CLK_SysTickLongDelay, .Lfunc_end3-CLK_SysTickLongDelay
	.cfi_endproc
	.cantunwind
	.fnend
                                        @ -- End function
	.section	.text.WIFI_Write,"ax",%progbits
	.hidden	WIFI_Write                      @ -- Begin function WIFI_Write
	.globl	WIFI_Write
	.p2align	2
	.type	WIFI_Write,%function
	.code	16                              @ @WIFI_Write
	.thumb_func
WIFI_Write:
.Lfunc_begin4:
	.loc	1 306 0 is_stmt 1               @ WiFi/wifi.c:306:0
	.fnstart
	.cfi_startproc
@ %bb.0:
	.save	{r7, lr}
	push	{r7, lr}
	.cfi_def_cfa_offset 8
	.cfi_offset lr, -4
	.cfi_offset r7, -8
	.pad	#16
	sub	sp, #16
	.cfi_def_cfa_offset 24
	str	r0, [sp, #12]
	str	r1, [sp, #8]
	str	r2, [sp, #4]
	movs	r0, #0
.Ltmp68:
	.loc	1 308 11 prologue_end           @ WiFi/wifi.c:308:11
	str	r0, [sp]
	.loc	1 308 7 is_stmt 0               @ WiFi/wifi.c:308:7
	b	.LBB4_1
.LBB4_1:                                @ =>This Loop Header: Depth=1
                                        @     Child Loop BB4_3 Depth 2
.Ltmp69:
	.loc	1 308 18                        @ WiFi/wifi.c:308:18
	ldr	r0, [sp]
	.loc	1 308 22                        @ WiFi/wifi.c:308:22
	ldr	r1, [sp, #4]
.Ltmp70:
	.loc	1 308 2                         @ WiFi/wifi.c:308:2
	cmp	r0, r1
	bge	.LBB4_9
	b	.LBB4_2
.LBB4_2:                                @   in Loop: Header=BB4_1 Depth=1
.Ltmp71:
	.loc	1 310 3 is_stmt 1               @ WiFi/wifi.c:310:3
	b	.LBB4_3
.LBB4_3:                                @   Parent Loop BB4_1 Depth=1
                                        @ =>  This Inner Loop Header: Depth=2
	.loc	1 0 3 is_stmt 0                 @ WiFi/wifi.c:0:3
	ldr	r0, __arm_cp.4_0
	.loc	1 310 22                        @ WiFi/wifi.c:310:22
	ldr	r0, [r0]
	.loc	1 310 3                         @ WiFi/wifi.c:310:3
	lsls	r0, r0, #8
	cmp	r0, #0
	bpl	.LBB4_5
	b	.LBB4_4
.LBB4_4:                                @   in Loop: Header=BB4_3 Depth=2
	b	.LBB4_3
.LBB4_5:                                @   in Loop: Header=BB4_1 Depth=1
	.loc	1 312 20 is_stmt 1              @ WiFi/wifi.c:312:20
	ldr	r0, [sp, #8]
	.loc	1 312 28 is_stmt 0              @ WiFi/wifi.c:312:28
	ldr	r1, [sp]
	.loc	1 312 20                        @ WiFi/wifi.c:312:20
	ldrb	r0, [r0, r1]
	ldr	r1, __arm_cp.4_1
	.loc	1 312 18                        @ WiFi/wifi.c:312:18
	str	r0, [r1]
.Ltmp72:
	.loc	1 313 7 is_stmt 1               @ WiFi/wifi.c:313:7
	ldr	r0, [sp, #12]
.Ltmp73:
	.loc	1 313 7 is_stmt 0               @ WiFi/wifi.c:313:7
	cmp	r0, #0
	beq	.LBB4_7
	b	.LBB4_6
.LBB4_6:                                @   in Loop: Header=BB4_1 Depth=1
.Ltmp74:
	.loc	1 314 17 is_stmt 1              @ WiFi/wifi.c:314:17
	ldr	r0, [sp, #8]
	.loc	1 314 25 is_stmt 0              @ WiFi/wifi.c:314:25
	ldr	r1, [sp]
	.loc	1 314 17                        @ WiFi/wifi.c:314:17
	ldrb	r1, [r0, r1]
	.loc	1 314 4                         @ WiFi/wifi.c:314:4
	ldr	r0, __arm_cp.4_2
	bl	printf
	b	.LBB4_7
.Ltmp75:
.LBB4_7:                                @   in Loop: Header=BB4_1 Depth=1
	.loc	1 315 2 is_stmt 1               @ WiFi/wifi.c:315:2
	b	.LBB4_8
.Ltmp76:
.LBB4_8:                                @   in Loop: Header=BB4_1 Depth=1
	.loc	1 308 35                        @ WiFi/wifi.c:308:35
	ldr	r0, [sp]
	adds	r0, r0, #1
	str	r0, [sp]
	.loc	1 308 2 is_stmt 0               @ WiFi/wifi.c:308:2
	b	.LBB4_1
.Ltmp77:
.LBB4_9:
	.loc	1 316 1 is_stmt 1               @ WiFi/wifi.c:316:1
	add	sp, #16
	pop	{r7, pc}
.Ltmp78:
	.p2align	2
@ %bb.10:
	.loc	1 0 1 is_stmt 0                 @ WiFi/wifi.c:0:1
__arm_cp.4_0:
	.long	1342648344                      @ 0x50073018
.Lcpi_end37:
	.size	__arm_cp.4_0, .Lcpi_end37-__arm_cp.4_0
__arm_cp.4_1:
	.long	1342648320                      @ 0x50073000
.Lcpi_end38:
	.size	__arm_cp.4_1, .Lcpi_end38-__arm_cp.4_1
__arm_cp.4_2:
	.long	.L.str.18
.Lcpi_end39:
	.size	__arm_cp.4_2, .Lcpi_end39-__arm_cp.4_2
.Lfunc_end4:
	.size	WIFI_Write, .Lfunc_end4-WIFI_Write
	.cfi_endproc
	.cantunwind
	.fnend
                                        @ -- End function
	.section	.text.WIFI_Read,"ax",%progbits
	.hidden	WIFI_Read                       @ -- Begin function WIFI_Read
	.globl	WIFI_Read
	.p2align	2
	.type	WIFI_Read,%function
	.code	16                              @ @WIFI_Read
	.thumb_func
WIFI_Read:
.Lfunc_begin5:
	.loc	1 280 0 is_stmt 1               @ WiFi/wifi.c:280:0
	.fnstart
	.cfi_startproc
@ %bb.0:
	.save	{r7, lr}
	push	{r7, lr}
	.cfi_def_cfa_offset 8
	.cfi_offset lr, -4
	.cfi_offset r7, -8
	.pad	#16
	sub	sp, #16
	.cfi_def_cfa_offset 24
	str	r0, [sp, #12]
	add	r0, sp, #8
	movs	r1, #0
.Ltmp79:
	.loc	1 281 7 prologue_end            @ WiFi/wifi.c:281:7
	strb	r1, [r0]
	add	r0, sp, #4
	.loc	1 282 7                         @ WiFi/wifi.c:282:7
	strb	r1, [r0]
	.loc	1 283 6                         @ WiFi/wifi.c:283:6
	str	r1, [sp]
	.loc	1 285 2                         @ WiFi/wifi.c:285:2
	b	.LBB5_1
.LBB5_1:                                @ =>This Loop Header: Depth=1
                                        @     Child Loop BB5_3 Depth 2
	.loc	1 285 9 is_stmt 0               @ WiFi/wifi.c:285:9
	ldr	r0, [sp]
	.loc	1 285 2                         @ WiFi/wifi.c:285:2
	cmp	r0, #0
	bne	.LBB5_12
	b	.LBB5_2
.LBB5_2:                                @   in Loop: Header=BB5_1 Depth=1
.Ltmp80:
	.loc	1 288 3 is_stmt 1               @ WiFi/wifi.c:288:3
	b	.LBB5_3
.LBB5_3:                                @   Parent Loop BB5_1 Depth=1
                                        @ =>  This Inner Loop Header: Depth=2
	.loc	1 0 3 is_stmt 0                 @ WiFi/wifi.c:0:3
	ldr	r0, __arm_cp.5_0
	.loc	1 288 22                        @ WiFi/wifi.c:288:22
	ldr	r0, [r0]
	.loc	1 288 3                         @ WiFi/wifi.c:288:3
	lsls	r0, r0, #17
	cmp	r0, #0
	bmi	.LBB5_11
	b	.LBB5_4
.LBB5_4:                                @   in Loop: Header=BB5_3 Depth=2
	.loc	1 0 3                           @ WiFi/wifi.c:0:3
	ldr	r0, __arm_cp.5_1
.Ltmp81:
	.loc	1 290 27 is_stmt 1              @ WiFi/wifi.c:290:27
	ldr	r0, [r0]
	add	r1, sp, #8
	.loc	1 290 8 is_stmt 0               @ WiFi/wifi.c:290:8
	strb	r0, [r1]
.Ltmp82:
	.loc	1 291 8 is_stmt 1               @ WiFi/wifi.c:291:8
	ldr	r0, [sp, #12]
.Ltmp83:
	.loc	1 291 8 is_stmt 0               @ WiFi/wifi.c:291:8
	cmp	r0, #0
	beq	.LBB5_6
	b	.LBB5_5
.LBB5_5:                                @   in Loop: Header=BB5_3 Depth=2
	.loc	1 0 8                           @ WiFi/wifi.c:0:8
	add	r0, sp, #8
.Ltmp84:
	.loc	1 292 18 is_stmt 1              @ WiFi/wifi.c:292:18
	ldrb	r1, [r0]
	.loc	1 292 5 is_stmt 0               @ WiFi/wifi.c:292:5
	ldr	r0, __arm_cp.5_2
	bl	printf
	b	.LBB5_6
.Ltmp85:
.LBB5_6:                                @   in Loop: Header=BB5_3 Depth=2
	.loc	1 0 5                           @ WiFi/wifi.c:0:5
	add	r0, sp, #4
.Ltmp86:
	.loc	1 293 8 is_stmt 1               @ WiFi/wifi.c:293:8
	ldrb	r0, [r0]
	.loc	1 293 23 is_stmt 0              @ WiFi/wifi.c:293:23
	cmp	r0, #79
	bne	.LBB5_9
	b	.LBB5_7
.LBB5_7:                                @   in Loop: Header=BB5_3 Depth=2
	.loc	1 0 23                          @ WiFi/wifi.c:0:23
	add	r0, sp, #8
	.loc	1 293 26                        @ WiFi/wifi.c:293:26
	ldrb	r0, [r0]
.Ltmp87:
	.loc	1 293 8                         @ WiFi/wifi.c:293:8
	cmp	r0, #75
	bne	.LBB5_9
	b	.LBB5_8
.LBB5_8:                                @   in Loop: Header=BB5_3 Depth=2
	.loc	1 0 8                           @ WiFi/wifi.c:0:8
	movs	r0, #1
.Ltmp88:
	.loc	1 296 11 is_stmt 1              @ WiFi/wifi.c:296:11
	str	r0, [sp]
	.loc	1 297 4                         @ WiFi/wifi.c:297:4
	b	.LBB5_10
.Ltmp89:
.LBB5_9:                                @   in Loop: Header=BB5_3 Depth=2
	.loc	1 299 15                        @ WiFi/wifi.c:299:15
	ldr	r0, [sp, #8]
	add	r1, sp, #4
	.loc	1 299 13 is_stmt 0              @ WiFi/wifi.c:299:13
	strb	r0, [r1]
	b	.LBB5_10
.Ltmp90:
.LBB5_10:                               @   in Loop: Header=BB5_3 Depth=2
	.loc	1 288 3 is_stmt 1               @ WiFi/wifi.c:288:3
	b	.LBB5_3
.Ltmp91:
.LBB5_11:                               @   in Loop: Header=BB5_1 Depth=1
	.loc	1 285 2                         @ WiFi/wifi.c:285:2
	b	.LBB5_1
.LBB5_12:
	.loc	1 302 1                         @ WiFi/wifi.c:302:1
	add	sp, #16
	pop	{r7, pc}
.Ltmp92:
	.p2align	2
@ %bb.13:
	.loc	1 0 1 is_stmt 0                 @ WiFi/wifi.c:0:1
__arm_cp.5_0:
	.long	1342648344                      @ 0x50073018
.Lcpi_end40:
	.size	__arm_cp.5_0, .Lcpi_end40-__arm_cp.5_0
__arm_cp.5_1:
	.long	1342648320                      @ 0x50073000
.Lcpi_end41:
	.size	__arm_cp.5_1, .Lcpi_end41-__arm_cp.5_1
__arm_cp.5_2:
	.long	.L.str.18
.Lcpi_end42:
	.size	__arm_cp.5_2, .Lcpi_end42-__arm_cp.5_2
.Lfunc_end5:
	.size	WIFI_Read, .Lfunc_end5-WIFI_Read
	.cfi_endproc
	.cantunwind
	.fnend
                                        @ -- End function
	.section	.text.WIFI_SendData,"ax",%progbits
	.hidden	WIFI_SendData                   @ -- Begin function WIFI_SendData
	.globl	WIFI_SendData
	.p2align	2
	.type	WIFI_SendData,%function
	.code	16                              @ @WIFI_SendData
	.thumb_func
WIFI_SendData:
.Lfunc_begin6:
	.loc	1 320 0 is_stmt 1               @ WiFi/wifi.c:320:0
	.fnstart
	.cfi_startproc
@ %bb.0:
	.save	{r7, lr}
	push	{r7, lr}
	.cfi_def_cfa_offset 8
	.cfi_offset lr, -4
	.cfi_offset r7, -8
	.pad	#72
	sub	sp, #72
	.cfi_def_cfa_offset 80
	str	r0, [sp, #68]
	str	r1, [sp, #64]
	str	r2, [sp, #60]
	movs	r0, #0
.Ltmp93:
	.loc	1 321 6 prologue_end            @ WiFi/wifi.c:321:6
	str	r0, [sp, #56]
	.loc	1 323 15                        @ WiFi/wifi.c:323:15
	ldr	r0, [sp, #64]
	.loc	1 323 24 is_stmt 0              @ WiFi/wifi.c:323:24
	ldr	r0, [r0, #4]
	.loc	1 323 6                         @ WiFi/wifi.c:323:6
	str	r0, [sp, #48]
.Ltmp94:
	.loc	1 326 3 is_stmt 1               @ WiFi/wifi.c:326:3
	ldr	r0, __arm_cp.6_0
	bl	printf
.Ltmp95:
	.loc	1 328 2                         @ WiFi/wifi.c:328:2
	b	.LBB6_1
.LBB6_1:                                @ =>This Inner Loop Header: Depth=1
	.loc	1 328 9 is_stmt 0               @ WiFi/wifi.c:328:9
	ldr	r0, [sp, #48]
	.loc	1 328 2                         @ WiFi/wifi.c:328:2
	cmp	r0, #0
	beq	.LBB6_3
	b	.LBB6_2
.LBB6_2:                                @   in Loop: Header=BB6_1 Depth=1
.Ltmp96:
	.loc	1 330 15 is_stmt 1              @ WiFi/wifi.c:330:15
	ldr	r0, [sp, #56]
	adds	r0, r0, #1
	str	r0, [sp, #56]
	.loc	1 331 10                        @ WiFi/wifi.c:331:10
	ldr	r0, [sp, #48]
	movs	r1, #10
	sdiv	r0, r0, r1
	str	r0, [sp, #48]
.Ltmp97:
	.loc	1 328 2                         @ WiFi/wifi.c:328:2
	b	.LBB6_1
.LBB6_3:
	.loc	1 334 22                        @ WiFi/wifi.c:334:22
	ldr	r0, [sp, #56]
	.loc	1 334 35 is_stmt 0              @ WiFi/wifi.c:334:35
	adds	r0, r0, #1
	movs	r1, #1
	.loc	1 334 14                        @ WiFi/wifi.c:334:14
	bl	calloc
	.loc	1 334 12                        @ WiFi/wifi.c:334:12
	str	r0, [sp, #52]
	.loc	1 335 10 is_stmt 1              @ WiFi/wifi.c:335:10
	ldr	r0, [sp, #52]
	.loc	1 335 27 is_stmt 0              @ WiFi/wifi.c:335:27
	ldr	r1, [sp, #64]
	.loc	1 335 36                        @ WiFi/wifi.c:335:36
	ldr	r2, [r1, #4]
	.loc	1 335 2                         @ WiFi/wifi.c:335:2
	ldr	r1, __arm_cp.6_1
	bl	sprintf
.Ltmp98:
	.loc	1 338 6 is_stmt 1               @ WiFi/wifi.c:338:6
	ldr	r1, [sp, #60]
.Ltmp99:
	.loc	1 338 6 is_stmt 0               @ WiFi/wifi.c:338:6
	cmp	r1, #0
	bne	.LBB6_5
	b	.LBB6_4
.LBB6_4:
.Ltmp100:
	.loc	1 339 14 is_stmt 1              @ WiFi/wifi.c:339:14
	ldr	r0, [sp, #68]
	.loc	1 339 41 is_stmt 0              @ WiFi/wifi.c:339:41
	ldr	r1, __arm_cp.6_3
	str	r0, [sp, #44]                   @ 4-byte Spill
	mov	r0, r1
	str	r1, [sp, #40]                   @ 4-byte Spill
	bl	strlen
	.loc	1 339 3                         @ WiFi/wifi.c:339:3
	ldr	r1, [sp, #44]                   @ 4-byte Reload
	str	r0, [sp, #36]                   @ 4-byte Spill
	mov	r0, r1
	ldr	r1, [sp, #40]                   @ 4-byte Reload
	ldr	r2, [sp, #36]                   @ 4-byte Reload
	bl	WIFI_Write
	b	.LBB6_8
.LBB6_5:
.Ltmp101:
	.loc	1 340 11 is_stmt 1              @ WiFi/wifi.c:340:11
	ldr	r0, [sp, #60]
.Ltmp102:
	.loc	1 340 11 is_stmt 0              @ WiFi/wifi.c:340:11
	cmp	r0, #1
	bne	.LBB6_7
	b	.LBB6_6
.LBB6_6:
.Ltmp103:
	.loc	1 341 14 is_stmt 1              @ WiFi/wifi.c:341:14
	ldr	r0, [sp, #68]
	.loc	1 341 41 is_stmt 0              @ WiFi/wifi.c:341:41
	ldr	r1, __arm_cp.6_2
	str	r0, [sp, #32]                   @ 4-byte Spill
	mov	r0, r1
	str	r1, [sp, #28]                   @ 4-byte Spill
	bl	strlen
	.loc	1 341 3                         @ WiFi/wifi.c:341:3
	ldr	r1, [sp, #32]                   @ 4-byte Reload
	str	r0, [sp, #24]                   @ 4-byte Spill
	mov	r0, r1
	ldr	r1, [sp, #28]                   @ 4-byte Reload
	ldr	r2, [sp, #24]                   @ 4-byte Reload
	bl	WIFI_Write
	b	.LBB6_7
.Ltmp104:
.LBB6_7:
	.loc	1 0 3                           @ WiFi/wifi.c:0:3
	b	.LBB6_8
.LBB6_8:
	.loc	1 343 13 is_stmt 1              @ WiFi/wifi.c:343:13
	ldr	r0, [sp, #68]
	.loc	1 343 20 is_stmt 0              @ WiFi/wifi.c:343:20
	ldr	r1, [sp, #52]
	.loc	1 343 31                        @ WiFi/wifi.c:343:31
	ldr	r2, [sp, #56]
	.loc	1 343 2                         @ WiFi/wifi.c:343:2
	bl	WIFI_Write
	.loc	1 345 13 is_stmt 1              @ WiFi/wifi.c:345:13
	ldr	r0, [sp, #68]
	.loc	1 345 35 is_stmt 0              @ WiFi/wifi.c:345:35
	ldr	r1, __arm_cp.6_4
	str	r0, [sp, #20]                   @ 4-byte Spill
	mov	r0, r1
	str	r1, [sp, #16]                   @ 4-byte Spill
	bl	strlen
	.loc	1 345 2                         @ WiFi/wifi.c:345:2
	ldr	r1, [sp, #20]                   @ 4-byte Reload
	str	r0, [sp, #12]                   @ 4-byte Spill
	mov	r0, r1
	ldr	r1, [sp, #16]                   @ 4-byte Reload
	ldr	r2, [sp, #12]                   @ 4-byte Reload
	bl	WIFI_Write
	.loc	1 347 12 is_stmt 1              @ WiFi/wifi.c:347:12
	ldr	r0, [sp, #68]
	.loc	1 347 2 is_stmt 0               @ WiFi/wifi.c:347:2
	bl	WIFI_Read
	.loc	1 350 13 is_stmt 1              @ WiFi/wifi.c:350:13
	ldr	r0, [sp, #68]
	.loc	1 350 20 is_stmt 0              @ WiFi/wifi.c:350:20
	ldr	r1, [sp, #64]
	.loc	1 350 29                        @ WiFi/wifi.c:350:29
	ldr	r2, [r1]
	.loc	1 350 44                        @ WiFi/wifi.c:350:44
	ldr	r1, [r1, #4]
	.loc	1 350 2                         @ WiFi/wifi.c:350:2
	str	r1, [sp, #8]                    @ 4-byte Spill
	mov	r1, r2
	ldr	r2, [sp, #8]                    @ 4-byte Reload
	bl	WIFI_Write
	.loc	1 352 13 is_stmt 1              @ WiFi/wifi.c:352:13
	ldr	r0, [sp, #68]
	.loc	1 352 35 is_stmt 0              @ WiFi/wifi.c:352:35
	ldr	r1, [sp, #16]                   @ 4-byte Reload
	str	r0, [sp, #4]                    @ 4-byte Spill
	mov	r0, r1
	bl	strlen
	.loc	1 352 2                         @ WiFi/wifi.c:352:2
	ldr	r1, [sp, #4]                    @ 4-byte Reload
	str	r0, [sp]                        @ 4-byte Spill
	mov	r0, r1
	ldr	r1, [sp, #16]                   @ 4-byte Reload
	ldr	r2, [sp]                        @ 4-byte Reload
	bl	WIFI_Write
	.loc	1 355 12 is_stmt 1              @ WiFi/wifi.c:355:12
	ldr	r0, [sp, #68]
	.loc	1 355 2 is_stmt 0               @ WiFi/wifi.c:355:2
	bl	WIFI_Read
	.loc	1 357 7 is_stmt 1               @ WiFi/wifi.c:357:7
	ldr	r0, [sp, #52]
	.loc	1 357 2 is_stmt 0               @ WiFi/wifi.c:357:2
	bl	free
.Ltmp105:
	.loc	1 359 6 is_stmt 1               @ WiFi/wifi.c:359:6
	ldr	r0, [sp, #68]
.Ltmp106:
	.loc	1 359 6 is_stmt 0               @ WiFi/wifi.c:359:6
	cmp	r0, #0
	beq	.LBB6_10
	b	.LBB6_9
.LBB6_9:
.Ltmp107:
	.loc	1 360 3 is_stmt 1               @ WiFi/wifi.c:360:3
	ldr	r0, __arm_cp.6_5
	bl	printf
	b	.LBB6_10
.Ltmp108:
.LBB6_10:
	.loc	1 0 3 is_stmt 0                 @ WiFi/wifi.c:0:3
	movs	r0, #1
	.loc	1 362 2 is_stmt 1               @ WiFi/wifi.c:362:2
	add	sp, #72
	pop	{r7, pc}
.Ltmp109:
	.p2align	2
@ %bb.11:
	.loc	1 0 2 is_stmt 0                 @ WiFi/wifi.c:0:2
__arm_cp.6_0:
	.long	.L.str.19
.Lcpi_end43:
	.size	__arm_cp.6_0, .Lcpi_end43-__arm_cp.6_0
__arm_cp.6_1:
	.long	.L.str.20
.Lcpi_end44:
	.size	__arm_cp.6_1, .Lcpi_end44-__arm_cp.6_1
__arm_cp.6_2:
	.long	ATCommand_CIPSEND1
.Lcpi_end45:
	.size	__arm_cp.6_2, .Lcpi_end45-__arm_cp.6_2
__arm_cp.6_3:
	.long	ATCommand_CIPSEND0
.Lcpi_end46:
	.size	__arm_cp.6_3, .Lcpi_end46-__arm_cp.6_3
__arm_cp.6_4:
	.long	ATCommand_END
.Lcpi_end47:
	.size	__arm_cp.6_4, .Lcpi_end47-__arm_cp.6_4
__arm_cp.6_5:
	.long	.L.str.21
.Lcpi_end48:
	.size	__arm_cp.6_5, .Lcpi_end48-__arm_cp.6_5
.Lfunc_end6:
	.size	WIFI_SendData, .Lfunc_end6-WIFI_SendData
	.cfi_endproc
	.cantunwind
	.fnend
                                        @ -- End function
	.section	.text.WIFI_ReceiveData,"ax",%progbits
	.hidden	WIFI_ReceiveData                @ -- Begin function WIFI_ReceiveData
	.globl	WIFI_ReceiveData
	.p2align	2
	.type	WIFI_ReceiveData,%function
	.code	16                              @ @WIFI_ReceiveData
	.thumb_func
WIFI_ReceiveData:
.Lfunc_begin7:
	.loc	1 367 0 is_stmt 1               @ WiFi/wifi.c:367:0
	.fnstart
	.cfi_startproc
@ %bb.0:
	.save	{r7, lr}
	push	{r7, lr}
	.cfi_def_cfa_offset 8
	.cfi_offset lr, -4
	.cfi_offset r7, -8
	.pad	#120
	sub	sp, #120
	.cfi_def_cfa_offset 128
	str	r0, [sp, #116]
	str	r1, [sp, #112]
	add	r0, sp, #108
	movs	r1, #0
.Ltmp110:
	.loc	1 368 7 prologue_end            @ WiFi/wifi.c:368:7
	strb	r1, [r0]
	.loc	1 369 6                         @ WiFi/wifi.c:369:6
	str	r1, [sp, #104]
	.loc	1 370 6                         @ WiFi/wifi.c:370:6
	str	r1, [sp, #100]
	.loc	1 371 6                         @ WiFi/wifi.c:371:6
	str	r1, [sp, #96]
	add	r0, sp, #32
	movs	r2, #64
	.loc	1 372 7                         @ WiFi/wifi.c:372:7
	str	r1, [sp]                        @ 4-byte Spill
	mov	r1, r2
	bl	__aeabi_memclr
	.loc	1 373 6                         @ WiFi/wifi.c:373:6
	ldr	r0, [sp]                        @ 4-byte Reload
	str	r0, [sp, #28]
	.loc	1 374 6                         @ WiFi/wifi.c:374:6
	str	r0, [sp, #24]
	.loc	1 375 6                         @ WiFi/wifi.c:375:6
	str	r0, [sp, #20]
	.loc	1 376 6                         @ WiFi/wifi.c:376:6
	str	r0, [sp, #16]
	.loc	1 377 6                         @ WiFi/wifi.c:377:6
	str	r0, [sp, #12]
.Ltmp111:
	.loc	1 380 3                         @ WiFi/wifi.c:380:3
	ldr	r0, __arm_cp.7_0
	bl	printf
.Ltmp112:
	.loc	1 383 2                         @ WiFi/wifi.c:383:2
	b	.LBB7_1
.LBB7_1:                                @ =>This Loop Header: Depth=1
                                        @     Child Loop BB7_3 Depth 2
	.loc	1 383 9 is_stmt 0               @ WiFi/wifi.c:383:9
	ldr	r0, [sp, #104]
	.loc	1 383 2                         @ WiFi/wifi.c:383:2
	cmp	r0, #0
	beq	.LBB7_2
	b	.LBB7_42
.LBB7_2:                                @   in Loop: Header=BB7_1 Depth=1
.Ltmp113:
	.loc	1 386 3 is_stmt 1               @ WiFi/wifi.c:386:3
	b	.LBB7_3
.LBB7_3:                                @   Parent Loop BB7_1 Depth=1
                                        @ =>  This Inner Loop Header: Depth=2
	.loc	1 0 3 is_stmt 0                 @ WiFi/wifi.c:0:3
	ldr	r0, __arm_cp.7_3
	.loc	1 386 22                        @ WiFi/wifi.c:386:22
	ldr	r0, [r0]
	.loc	1 386 3                         @ WiFi/wifi.c:386:3
	lsls	r0, r0, #17
	cmp	r0, #0
	bpl	.LBB7_4
	b	.LBB7_41
.LBB7_4:                                @   in Loop: Header=BB7_3 Depth=2
	.loc	1 0 3                           @ WiFi/wifi.c:0:3
	movs	r0, #0
.Ltmp114:
	.loc	1 388 9 is_stmt 1               @ WiFi/wifi.c:388:9
	str	r0, [sp, #100]
	ldr	r0, __arm_cp.7_4
	.loc	1 389 22                        @ WiFi/wifi.c:389:22
	ldr	r0, [r0]
	add	r1, sp, #108
	.loc	1 389 9 is_stmt 0               @ WiFi/wifi.c:389:9
	strb	r0, [r1]
	.loc	1 390 17 is_stmt 1              @ WiFi/wifi.c:390:17
	ldrb	r1, [r1]
	.loc	1 390 4 is_stmt 0               @ WiFi/wifi.c:390:4
	ldr	r0, __arm_cp.7_8
	bl	printf
.Ltmp115:
	.loc	1 391 8 is_stmt 1               @ WiFi/wifi.c:391:8
	ldr	r1, [sp, #96]
	.loc	1 391 18 is_stmt 0              @ WiFi/wifi.c:391:18
	cmp	r1, #0
	bne	.LBB7_8
	b	.LBB7_5
.LBB7_5:                                @   in Loop: Header=BB7_3 Depth=2
	.loc	1 0 18                          @ WiFi/wifi.c:0:18
	add	r0, sp, #108
	.loc	1 391 21                        @ WiFi/wifi.c:391:21
	ldrb	r0, [r0]
	.loc	1 391 33                        @ WiFi/wifi.c:391:33
	cmp	r0, #43
	bne	.LBB7_8
	b	.LBB7_6
.LBB7_6:                                @   in Loop: Header=BB7_3 Depth=2
	.loc	1 391 36                        @ WiFi/wifi.c:391:36
	ldr	r0, [sp, #100]
.Ltmp116:
	.loc	1 391 8                         @ WiFi/wifi.c:391:8
	cmp	r0, #0
	bne	.LBB7_8
	b	.LBB7_7
.LBB7_7:                                @   in Loop: Header=BB7_3 Depth=2
	.loc	1 0 8                           @ WiFi/wifi.c:0:8
	movs	r0, #1
.Ltmp117:
	.loc	1 393 10 is_stmt 1              @ WiFi/wifi.c:393:10
	str	r0, [sp, #96]
	.loc	1 394 10                        @ WiFi/wifi.c:394:10
	str	r0, [sp, #100]
	.loc	1 396 4                         @ WiFi/wifi.c:396:4
	b	.LBB7_8
.Ltmp118:
.LBB7_8:                                @   in Loop: Header=BB7_3 Depth=2
	.loc	1 397 8                         @ WiFi/wifi.c:397:8
	ldr	r0, [sp, #96]
	.loc	1 397 18 is_stmt 0              @ WiFi/wifi.c:397:18
	cmp	r0, #1
	bne	.LBB7_12
	b	.LBB7_9
.LBB7_9:                                @   in Loop: Header=BB7_3 Depth=2
	.loc	1 0 18                          @ WiFi/wifi.c:0:18
	add	r0, sp, #108
	.loc	1 397 21                        @ WiFi/wifi.c:397:21
	ldrb	r0, [r0]
	.loc	1 397 33                        @ WiFi/wifi.c:397:33
	cmp	r0, #73
	bne	.LBB7_12
	b	.LBB7_10
.LBB7_10:                               @   in Loop: Header=BB7_3 Depth=2
	.loc	1 397 36                        @ WiFi/wifi.c:397:36
	ldr	r0, [sp, #100]
.Ltmp119:
	.loc	1 397 8                         @ WiFi/wifi.c:397:8
	cmp	r0, #0
	bne	.LBB7_12
	b	.LBB7_11
.LBB7_11:                               @   in Loop: Header=BB7_3 Depth=2
	.loc	1 0 8                           @ WiFi/wifi.c:0:8
	movs	r0, #2
.Ltmp120:
	.loc	1 399 10 is_stmt 1              @ WiFi/wifi.c:399:10
	str	r0, [sp, #96]
	movs	r0, #1
	.loc	1 400 10                        @ WiFi/wifi.c:400:10
	str	r0, [sp, #100]
	.loc	1 402 4                         @ WiFi/wifi.c:402:4
	b	.LBB7_16
.Ltmp121:
.LBB7_12:                               @   in Loop: Header=BB7_3 Depth=2
	.loc	1 403 13                        @ WiFi/wifi.c:403:13
	ldr	r0, [sp, #96]
	.loc	1 403 23 is_stmt 0              @ WiFi/wifi.c:403:23
	cmp	r0, #1
	bne	.LBB7_15
	b	.LBB7_13
.LBB7_13:                               @   in Loop: Header=BB7_3 Depth=2
	.loc	1 403 26                        @ WiFi/wifi.c:403:26
	ldr	r0, [sp, #100]
.Ltmp122:
	.loc	1 403 13                        @ WiFi/wifi.c:403:13
	cmp	r0, #0
	bne	.LBB7_15
	b	.LBB7_14
.LBB7_14:                               @   in Loop: Header=BB7_3 Depth=2
	.loc	1 0 13                          @ WiFi/wifi.c:0:13
	movs	r0, #0
.Ltmp123:
	.loc	1 404 10 is_stmt 1              @ WiFi/wifi.c:404:10
	str	r0, [sp, #96]
	.loc	1 404 5 is_stmt 0               @ WiFi/wifi.c:404:5
	b	.LBB7_15
.Ltmp124:
.LBB7_15:                               @   in Loop: Header=BB7_3 Depth=2
	.loc	1 0 5                           @ WiFi/wifi.c:0:5
	b	.LBB7_16
.LBB7_16:                               @   in Loop: Header=BB7_3 Depth=2
.Ltmp125:
	.loc	1 406 8 is_stmt 1               @ WiFi/wifi.c:406:8
	ldr	r0, [sp, #96]
	.loc	1 406 18 is_stmt 0              @ WiFi/wifi.c:406:18
	cmp	r0, #2
	bne	.LBB7_20
	b	.LBB7_17
.LBB7_17:                               @   in Loop: Header=BB7_3 Depth=2
	.loc	1 0 18                          @ WiFi/wifi.c:0:18
	add	r0, sp, #108
	.loc	1 406 21                        @ WiFi/wifi.c:406:21
	ldrb	r0, [r0]
	.loc	1 406 33                        @ WiFi/wifi.c:406:33
	cmp	r0, #80
	bne	.LBB7_20
	b	.LBB7_18
.LBB7_18:                               @   in Loop: Header=BB7_3 Depth=2
	.loc	1 406 36                        @ WiFi/wifi.c:406:36
	ldr	r0, [sp, #100]
.Ltmp126:
	.loc	1 406 8                         @ WiFi/wifi.c:406:8
	cmp	r0, #0
	bne	.LBB7_20
	b	.LBB7_19
.LBB7_19:                               @   in Loop: Header=BB7_3 Depth=2
	.loc	1 0 8                           @ WiFi/wifi.c:0:8
	movs	r0, #3
.Ltmp127:
	.loc	1 408 10 is_stmt 1              @ WiFi/wifi.c:408:10
	str	r0, [sp, #96]
	movs	r0, #1
	.loc	1 409 10                        @ WiFi/wifi.c:409:10
	str	r0, [sp, #100]
	.loc	1 411 4                         @ WiFi/wifi.c:411:4
	b	.LBB7_24
.Ltmp128:
.LBB7_20:                               @   in Loop: Header=BB7_3 Depth=2
	.loc	1 412 13                        @ WiFi/wifi.c:412:13
	ldr	r0, [sp, #96]
	.loc	1 412 23 is_stmt 0              @ WiFi/wifi.c:412:23
	cmp	r0, #2
	bne	.LBB7_23
	b	.LBB7_21
.LBB7_21:                               @   in Loop: Header=BB7_3 Depth=2
	.loc	1 412 26                        @ WiFi/wifi.c:412:26
	ldr	r0, [sp, #100]
.Ltmp129:
	.loc	1 412 13                        @ WiFi/wifi.c:412:13
	cmp	r0, #0
	bne	.LBB7_23
	b	.LBB7_22
.LBB7_22:                               @   in Loop: Header=BB7_3 Depth=2
	.loc	1 0 13                          @ WiFi/wifi.c:0:13
	movs	r0, #0
.Ltmp130:
	.loc	1 413 10 is_stmt 1              @ WiFi/wifi.c:413:10
	str	r0, [sp, #96]
	.loc	1 413 5 is_stmt 0               @ WiFi/wifi.c:413:5
	b	.LBB7_23
.Ltmp131:
.LBB7_23:                               @   in Loop: Header=BB7_3 Depth=2
	.loc	1 0 5                           @ WiFi/wifi.c:0:5
	b	.LBB7_24
.LBB7_24:                               @   in Loop: Header=BB7_3 Depth=2
.Ltmp132:
	.loc	1 415 8 is_stmt 1               @ WiFi/wifi.c:415:8
	ldr	r0, [sp, #96]
	.loc	1 415 18 is_stmt 0              @ WiFi/wifi.c:415:18
	cmp	r0, #3
	bne	.LBB7_28
	b	.LBB7_25
.LBB7_25:                               @   in Loop: Header=BB7_3 Depth=2
	.loc	1 0 18                          @ WiFi/wifi.c:0:18
	add	r0, sp, #108
	.loc	1 415 21                        @ WiFi/wifi.c:415:21
	ldrb	r0, [r0]
	.loc	1 415 33                        @ WiFi/wifi.c:415:33
	cmp	r0, #68
	bne	.LBB7_28
	b	.LBB7_26
.LBB7_26:                               @   in Loop: Header=BB7_3 Depth=2
	.loc	1 415 36                        @ WiFi/wifi.c:415:36
	ldr	r0, [sp, #100]
.Ltmp133:
	.loc	1 415 8                         @ WiFi/wifi.c:415:8
	cmp	r0, #0
	bne	.LBB7_28
	b	.LBB7_27
.LBB7_27:                               @   in Loop: Header=BB7_3 Depth=2
	.loc	1 0 8                           @ WiFi/wifi.c:0:8
	movs	r0, #4
.Ltmp134:
	.loc	1 417 10 is_stmt 1              @ WiFi/wifi.c:417:10
	str	r0, [sp, #96]
	movs	r0, #1
	.loc	1 418 10                        @ WiFi/wifi.c:418:10
	str	r0, [sp, #100]
	.loc	1 420 4                         @ WiFi/wifi.c:420:4
	b	.LBB7_32
.Ltmp135:
.LBB7_28:                               @   in Loop: Header=BB7_3 Depth=2
	.loc	1 421 13                        @ WiFi/wifi.c:421:13
	ldr	r0, [sp, #96]
	.loc	1 421 23 is_stmt 0              @ WiFi/wifi.c:421:23
	cmp	r0, #3
	bne	.LBB7_31
	b	.LBB7_29
.LBB7_29:                               @   in Loop: Header=BB7_3 Depth=2
	.loc	1 421 26                        @ WiFi/wifi.c:421:26
	ldr	r0, [sp, #100]
.Ltmp136:
	.loc	1 421 13                        @ WiFi/wifi.c:421:13
	cmp	r0, #0
	bne	.LBB7_31
	b	.LBB7_30
.LBB7_30:                               @   in Loop: Header=BB7_3 Depth=2
	.loc	1 0 13                          @ WiFi/wifi.c:0:13
	movs	r0, #0
.Ltmp137:
	.loc	1 422 10 is_stmt 1              @ WiFi/wifi.c:422:10
	str	r0, [sp, #96]
	.loc	1 422 5 is_stmt 0               @ WiFi/wifi.c:422:5
	b	.LBB7_31
.Ltmp138:
.LBB7_31:                               @   in Loop: Header=BB7_3 Depth=2
	.loc	1 0 5                           @ WiFi/wifi.c:0:5
	b	.LBB7_32
.LBB7_32:                               @   in Loop: Header=BB7_3 Depth=2
.Ltmp139:
	.loc	1 424 8 is_stmt 1               @ WiFi/wifi.c:424:8
	ldr	r0, [sp, #96]
	.loc	1 424 18 is_stmt 0              @ WiFi/wifi.c:424:18
	cmp	r0, #4
	bne	.LBB7_36
	b	.LBB7_33
.LBB7_33:                               @   in Loop: Header=BB7_3 Depth=2
	.loc	1 0 18                          @ WiFi/wifi.c:0:18
	add	r0, sp, #108
	.loc	1 424 21                        @ WiFi/wifi.c:424:21
	ldrb	r0, [r0]
	.loc	1 424 33                        @ WiFi/wifi.c:424:33
	cmp	r0, #44
	bne	.LBB7_36
	b	.LBB7_34
.LBB7_34:                               @   in Loop: Header=BB7_3 Depth=2
	.loc	1 424 36                        @ WiFi/wifi.c:424:36
	ldr	r0, [sp, #100]
.Ltmp140:
	.loc	1 424 8                         @ WiFi/wifi.c:424:8
	cmp	r0, #0
	bne	.LBB7_36
	b	.LBB7_35
.LBB7_35:                               @   in Loop: Header=BB7_1 Depth=1
	.loc	1 0 8                           @ WiFi/wifi.c:0:8
	movs	r0, #1
.Ltmp141:
	.loc	1 426 15 is_stmt 1              @ WiFi/wifi.c:426:15
	str	r0, [sp, #104]
	.loc	1 427 10                        @ WiFi/wifi.c:427:10
	str	r0, [sp, #100]
	.loc	1 428 5                         @ WiFi/wifi.c:428:5
	b	.LBB7_41
.Ltmp142:
.LBB7_36:                               @   in Loop: Header=BB7_3 Depth=2
	.loc	1 431 13                        @ WiFi/wifi.c:431:13
	ldr	r0, [sp, #96]
	.loc	1 431 23 is_stmt 0              @ WiFi/wifi.c:431:23
	cmp	r0, #4
	bne	.LBB7_39
	b	.LBB7_37
.LBB7_37:                               @   in Loop: Header=BB7_3 Depth=2
	.loc	1 431 26                        @ WiFi/wifi.c:431:26
	ldr	r0, [sp, #100]
.Ltmp143:
	.loc	1 431 13                        @ WiFi/wifi.c:431:13
	cmp	r0, #0
	bne	.LBB7_39
	b	.LBB7_38
.LBB7_38:                               @   in Loop: Header=BB7_3 Depth=2
	.loc	1 0 13                          @ WiFi/wifi.c:0:13
	movs	r0, #0
.Ltmp144:
	.loc	1 432 10 is_stmt 1              @ WiFi/wifi.c:432:10
	str	r0, [sp, #96]
	.loc	1 432 5 is_stmt 0               @ WiFi/wifi.c:432:5
	b	.LBB7_39
.Ltmp145:
.LBB7_39:                               @   in Loop: Header=BB7_3 Depth=2
	.loc	1 0 5                           @ WiFi/wifi.c:0:5
	b	.LBB7_40
.LBB7_40:                               @   in Loop: Header=BB7_3 Depth=2
	.loc	1 386 3 is_stmt 1               @ WiFi/wifi.c:386:3
	b	.LBB7_3
.Ltmp146:
.LBB7_41:                               @   in Loop: Header=BB7_1 Depth=1
	.loc	1 383 2                         @ WiFi/wifi.c:383:2
	b	.LBB7_1
.LBB7_42:
	.loc	1 435 2                         @ WiFi/wifi.c:435:2
	ldr	r0, __arm_cp.7_1
	bl	printf
	.loc	1 436 2                         @ WiFi/wifi.c:436:2
	b	.LBB7_43
.LBB7_43:                               @ =>This Loop Header: Depth=1
                                        @     Child Loop BB7_45 Depth 2
	.loc	1 436 9 is_stmt 0               @ WiFi/wifi.c:436:9
	ldr	r0, [sp, #104]
	.loc	1 436 2                         @ WiFi/wifi.c:436:2
	cmp	r0, #0
	bne	.LBB7_44
	b	.LBB7_69
.LBB7_44:                               @   in Loop: Header=BB7_43 Depth=1
.Ltmp147:
	.loc	1 439 3 is_stmt 1               @ WiFi/wifi.c:439:3
	b	.LBB7_45
.LBB7_45:                               @   Parent Loop BB7_43 Depth=1
                                        @ =>  This Inner Loop Header: Depth=2
	.loc	1 0 3 is_stmt 0                 @ WiFi/wifi.c:0:3
	ldr	r0, __arm_cp.7_3
	.loc	1 439 22                        @ WiFi/wifi.c:439:22
	ldr	r0, [r0]
	.loc	1 439 3                         @ WiFi/wifi.c:439:3
	lsls	r0, r0, #17
	cmp	r0, #0
	bmi	.LBB7_68
	b	.LBB7_46
.LBB7_46:                               @   in Loop: Header=BB7_45 Depth=2
	.loc	1 0 3                           @ WiFi/wifi.c:0:3
	ldr	r0, __arm_cp.7_4
.Ltmp148:
	.loc	1 441 22 is_stmt 1              @ WiFi/wifi.c:441:22
	ldr	r0, [r0]
	add	r1, sp, #108
	.loc	1 441 9 is_stmt 0               @ WiFi/wifi.c:441:9
	strb	r0, [r1]
	.loc	1 442 19 is_stmt 1              @ WiFi/wifi.c:442:19
	ldrb	r1, [r1]
	.loc	1 442 4 is_stmt 0               @ WiFi/wifi.c:442:4
	ldr	r0, __arm_cp.7_5
	bl	printf
.Ltmp149:
	.loc	1 444 8 is_stmt 1               @ WiFi/wifi.c:444:8
	ldr	r1, [sp, #24]
.Ltmp150:
	.loc	1 444 8 is_stmt 0               @ WiFi/wifi.c:444:8
	cmp	r1, #0
	bne	.LBB7_50
	b	.LBB7_47
.LBB7_47:                               @   in Loop: Header=BB7_45 Depth=2
.Ltmp151:
	.loc	1 446 25 is_stmt 1              @ WiFi/wifi.c:446:25
	ldr	r0, [sp, #108]
	.loc	1 446 30 is_stmt 0              @ WiFi/wifi.c:446:30
	subs	r0, #48
	add	r1, sp, #8
	.loc	1 446 13                        @ WiFi/wifi.c:446:13
	strb	r0, [r1]
.Ltmp152:
	.loc	1 447 9 is_stmt 1               @ WiFi/wifi.c:447:9
	ldr	r0, [sp, #116]
.Ltmp153:
	.loc	1 447 9 is_stmt 0               @ WiFi/wifi.c:447:9
	cmp	r0, #0
	beq	.LBB7_49
	b	.LBB7_48
.LBB7_48:                               @   in Loop: Header=BB7_45 Depth=2
	.loc	1 0 9                           @ WiFi/wifi.c:0:9
	add	r0, sp, #8
.Ltmp154:
	.loc	1 448 36 is_stmt 1              @ WiFi/wifi.c:448:36
	ldrb	r1, [r0]
	.loc	1 448 6 is_stmt 0               @ WiFi/wifi.c:448:6
	ldr	r0, __arm_cp.7_6
	bl	printf
	b	.LBB7_49
.Ltmp155:
.LBB7_49:                               @   in Loop: Header=BB7_45 Depth=2
	.loc	1 449 4 is_stmt 1               @ WiFi/wifi.c:449:4
	b	.LBB7_50
.Ltmp156:
.LBB7_50:                               @   in Loop: Header=BB7_45 Depth=2
	.loc	1 451 8                         @ WiFi/wifi.c:451:8
	ldr	r0, [sp, #24]
	.loc	1 451 15 is_stmt 0              @ WiFi/wifi.c:451:15
	cmp	r0, #1
	bne	.LBB7_53
	b	.LBB7_51
.LBB7_51:                               @   in Loop: Header=BB7_45 Depth=2
	.loc	1 0 15                          @ WiFi/wifi.c:0:15
	add	r0, sp, #108
	.loc	1 451 18                        @ WiFi/wifi.c:451:18
	ldrb	r0, [r0]
.Ltmp157:
	.loc	1 451 8                         @ WiFi/wifi.c:451:8
	cmp	r0, #44
	beq	.LBB7_53
	b	.LBB7_52
.LBB7_52:                               @   in Loop: Header=BB7_45 Depth=2
	.loc	1 0 8                           @ WiFi/wifi.c:0:8
	movs	r0, #0
.Ltmp158:
	.loc	1 452 15 is_stmt 1              @ WiFi/wifi.c:452:15
	str	r0, [sp, #104]
	.loc	1 452 5 is_stmt 0               @ WiFi/wifi.c:452:5
	b	.LBB7_53
.Ltmp159:
.LBB7_53:                               @   in Loop: Header=BB7_45 Depth=2
	.loc	1 455 8 is_stmt 1               @ WiFi/wifi.c:455:8
	ldr	r0, [sp, #12]
	.loc	1 455 21 is_stmt 0              @ WiFi/wifi.c:455:21
	cmp	r0, #0
	beq	.LBB7_56
	b	.LBB7_54
.LBB7_54:                               @   in Loop: Header=BB7_45 Depth=2
	.loc	1 455 24                        @ WiFi/wifi.c:455:24
	ldr	r0, [sp, #24]
	.loc	1 455 28                        @ WiFi/wifi.c:455:28
	ldr	r1, [sp, #16]
	.loc	1 455 45                        @ WiFi/wifi.c:455:45
	ldr	r2, [sp, #20]
	.loc	1 455 39                        @ WiFi/wifi.c:455:39
	adds	r1, r1, r2
	.loc	1 455 43                        @ WiFi/wifi.c:455:43
	adds	r1, r1, #3
.Ltmp160:
	.loc	1 455 8                         @ WiFi/wifi.c:455:8
	cmp	r0, r1
	bge	.LBB7_56
	b	.LBB7_55
.LBB7_55:                               @   in Loop: Header=BB7_45 Depth=2
.Ltmp161:
	.loc	1 456 37 is_stmt 1              @ WiFi/wifi.c:456:37
	ldr	r0, [sp, #108]
	.loc	1 456 11 is_stmt 0              @ WiFi/wifi.c:456:11
	ldr	r1, [sp, #24]
	.loc	1 456 20                        @ WiFi/wifi.c:456:20
	ldr	r2, [sp, #20]
	.loc	1 456 13                        @ WiFi/wifi.c:456:13
	subs	r1, r1, r2
	add	r2, sp, #32
	.loc	1 456 5                         @ WiFi/wifi.c:456:5
	adds	r1, r1, r2
	subs	r1, r1, #3
	.loc	1 456 35                        @ WiFi/wifi.c:456:35
	strb	r0, [r1]
	.loc	1 456 5                         @ WiFi/wifi.c:456:5
	b	.LBB7_56
.Ltmp162:
.LBB7_56:                               @   in Loop: Header=BB7_45 Depth=2
	.loc	1 459 8 is_stmt 1               @ WiFi/wifi.c:459:8
	ldr	r0, [sp, #24]
	.loc	1 459 14 is_stmt 0              @ WiFi/wifi.c:459:14
	cmp	r0, #2
	blt	.LBB7_64
	b	.LBB7_57
.LBB7_57:                               @   in Loop: Header=BB7_45 Depth=2
	.loc	1 459 17                        @ WiFi/wifi.c:459:17
	ldr	r0, [sp, #12]
.Ltmp163:
	.loc	1 459 8                         @ WiFi/wifi.c:459:8
	cmp	r0, #0
	bne	.LBB7_64
	b	.LBB7_58
.LBB7_58:                               @   in Loop: Header=BB7_45 Depth=2
	.loc	1 0 8                           @ WiFi/wifi.c:0:8
	add	r0, sp, #108
.Ltmp164:
	.loc	1 462 9 is_stmt 1               @ WiFi/wifi.c:462:9
	ldrb	r0, [r0]
.Ltmp165:
	.loc	1 462 9 is_stmt 0               @ WiFi/wifi.c:462:9
	cmp	r0, #58
	bne	.LBB7_62
	b	.LBB7_59
.LBB7_59:                               @   in Loop: Header=BB7_45 Depth=2
	.loc	1 0 9                           @ WiFi/wifi.c:0:9
	movs	r0, #1
.Ltmp166:
	.loc	1 464 19 is_stmt 1              @ WiFi/wifi.c:464:19
	str	r0, [sp, #12]
	.loc	1 465 16                        @ WiFi/wifi.c:465:16
	ldr	r0, [sp, #16]
	subs	r0, r0, #1
	str	r0, [sp, #16]
.Ltmp167:
	.loc	1 466 10                        @ WiFi/wifi.c:466:10
	ldr	r0, [sp, #116]
.Ltmp168:
	.loc	1 466 10 is_stmt 0              @ WiFi/wifi.c:466:10
	cmp	r0, #0
	beq	.LBB7_61
	b	.LBB7_60
.LBB7_60:                               @   in Loop: Header=BB7_45 Depth=2
.Ltmp169:
	.loc	1 467 37 is_stmt 1              @ WiFi/wifi.c:467:37
	ldr	r1, [sp, #16]
	.loc	1 467 7 is_stmt 0               @ WiFi/wifi.c:467:7
	ldr	r0, __arm_cp.7_7
	bl	printf
	b	.LBB7_61
.Ltmp170:
.LBB7_61:                               @   in Loop: Header=BB7_45 Depth=2
	.loc	1 468 5 is_stmt 1               @ WiFi/wifi.c:468:5
	b	.LBB7_63
.Ltmp171:
.LBB7_62:                               @   in Loop: Header=BB7_45 Depth=2
	.loc	1 471 24                        @ WiFi/wifi.c:471:24
	ldr	r0, [sp, #16]
	movs	r1, #10
	.loc	1 471 22 is_stmt 0              @ WiFi/wifi.c:471:22
	muls	r1, r0, r1
	add	r0, sp, #108
	.loc	1 471 37                        @ WiFi/wifi.c:471:37
	ldrb	r0, [r0]
	.loc	1 471 35                        @ WiFi/wifi.c:471:35
	adds	r0, r1, r0
	.loc	1 471 42                        @ WiFi/wifi.c:471:42
	subs	r0, #48
	.loc	1 471 17                        @ WiFi/wifi.c:471:17
	str	r0, [sp, #16]
	.loc	1 472 18 is_stmt 1              @ WiFi/wifi.c:472:18
	ldr	r0, [sp, #20]
	adds	r0, r0, #1
	str	r0, [sp, #20]
	b	.LBB7_63
.Ltmp172:
.LBB7_63:                               @   in Loop: Header=BB7_45 Depth=2
	.loc	1 474 4                         @ WiFi/wifi.c:474:4
	b	.LBB7_64
.Ltmp173:
.LBB7_64:                               @   in Loop: Header=BB7_45 Depth=2
	.loc	1 480 8                         @ WiFi/wifi.c:480:8
	ldr	r0, [sp, #12]
	.loc	1 480 21 is_stmt 0              @ WiFi/wifi.c:480:21
	cmp	r0, #0
	beq	.LBB7_67
	b	.LBB7_65
.LBB7_65:                               @   in Loop: Header=BB7_45 Depth=2
	.loc	1 480 24                        @ WiFi/wifi.c:480:24
	ldr	r0, [sp, #24]
	.loc	1 480 29                        @ WiFi/wifi.c:480:29
	ldr	r1, [sp, #16]
	.loc	1 480 46                        @ WiFi/wifi.c:480:46
	ldr	r2, [sp, #20]
	.loc	1 480 40                        @ WiFi/wifi.c:480:40
	adds	r1, r1, r2
	.loc	1 480 44                        @ WiFi/wifi.c:480:44
	adds	r1, r1, #3
.Ltmp174:
	.loc	1 480 8                         @ WiFi/wifi.c:480:8
	cmp	r0, r1
	bne	.LBB7_67
	b	.LBB7_66
.LBB7_66:                               @   in Loop: Header=BB7_45 Depth=2
	.loc	1 0 8                           @ WiFi/wifi.c:0:8
	movs	r0, #0
.Ltmp175:
	.loc	1 481 15 is_stmt 1              @ WiFi/wifi.c:481:15
	str	r0, [sp, #104]
	.loc	1 481 5 is_stmt 0               @ WiFi/wifi.c:481:5
	b	.LBB7_67
.Ltmp176:
.LBB7_67:                               @   in Loop: Header=BB7_45 Depth=2
	.loc	1 482 5 is_stmt 1               @ WiFi/wifi.c:482:5
	ldr	r0, [sp, #24]
	adds	r0, r0, #1
	str	r0, [sp, #24]
.Ltmp177:
	.loc	1 439 3                         @ WiFi/wifi.c:439:3
	b	.LBB7_45
.Ltmp178:
.LBB7_68:                               @   in Loop: Header=BB7_43 Depth=1
	.loc	1 436 2                         @ WiFi/wifi.c:436:2
	b	.LBB7_43
.LBB7_69:
	.loc	1 0 2 is_stmt 0                 @ WiFi/wifi.c:0:2
	movs	r0, #0
.Ltmp179:
	.loc	1 486 11 is_stmt 1              @ WiFi/wifi.c:486:11
	str	r0, [sp, #4]
	.loc	1 486 7 is_stmt 0               @ WiFi/wifi.c:486:7
	b	.LBB7_70
.LBB7_70:                               @ =>This Inner Loop Header: Depth=1
.Ltmp180:
	.loc	1 486 19                        @ WiFi/wifi.c:486:19
	ldr	r0, [sp, #4]
	.loc	1 486 25                        @ WiFi/wifi.c:486:25
	ldr	r1, [sp, #16]
.Ltmp181:
	.loc	1 486 2                         @ WiFi/wifi.c:486:2
	cmp	r0, r1
	bgt	.LBB7_73
	b	.LBB7_71
.LBB7_71:                               @   in Loop: Header=BB7_70 Depth=1
.Ltmp182:
	.loc	1 487 31 is_stmt 1              @ WiFi/wifi.c:487:31
	ldr	r0, [sp, #4]
	add	r1, sp, #32
	.loc	1 487 25 is_stmt 0              @ WiFi/wifi.c:487:25
	ldrb	r1, [r1, r0]
	.loc	1 487 4                         @ WiFi/wifi.c:487:4
	ldr	r2, [sp, #112]
	.loc	1 487 13                        @ WiFi/wifi.c:487:13
	ldr	r2, [r2]
	.loc	1 487 23                        @ WiFi/wifi.c:487:23
	strb	r1, [r2, r0]
	.loc	1 487 3                         @ WiFi/wifi.c:487:3
	b	.LBB7_72
.LBB7_72:                               @   in Loop: Header=BB7_70 Depth=1
	.loc	1 486 39 is_stmt 1              @ WiFi/wifi.c:486:39
	ldr	r0, [sp, #4]
	adds	r0, r0, #1
	str	r0, [sp, #4]
	.loc	1 486 2 is_stmt 0               @ WiFi/wifi.c:486:2
	b	.LBB7_70
.Ltmp183:
.LBB7_73:
	.loc	1 488 17 is_stmt 1              @ WiFi/wifi.c:488:17
	ldr	r0, [sp, #16]
	.loc	1 488 2 is_stmt 0               @ WiFi/wifi.c:488:2
	ldr	r1, [sp, #112]
	.loc	1 488 15                        @ WiFi/wifi.c:488:15
	str	r0, [r1, #4]
	.loc	1 490 2 is_stmt 1               @ WiFi/wifi.c:490:2
	ldr	r0, __arm_cp.7_2
	add	r1, sp, #32
	bl	printf
.Ltmp184:
	.loc	1 493 6                         @ WiFi/wifi.c:493:6
	ldr	r1, [sp, #116]
.Ltmp185:
	.loc	1 493 6 is_stmt 0               @ WiFi/wifi.c:493:6
	cmp	r1, #0
	beq	.LBB7_75
	b	.LBB7_74
.LBB7_74:
.Ltmp186:
	.loc	1 494 20 is_stmt 1              @ WiFi/wifi.c:494:20
	ldr	r0, [sp, #112]
	.loc	1 494 3 is_stmt 0               @ WiFi/wifi.c:494:3
	bl	printNetworkData
	b	.LBB7_75
.Ltmp187:
.LBB7_75:
	.loc	1 0 3                           @ WiFi/wifi.c:0:3
	movs	r0, #1
	.loc	1 496 2 is_stmt 1               @ WiFi/wifi.c:496:2
	add	sp, #120
	pop	{r7, pc}
.Ltmp188:
	.p2align	2
@ %bb.76:
	.loc	1 0 2 is_stmt 0                 @ WiFi/wifi.c:0:2
__arm_cp.7_0:
	.long	.L.str.22
.Lcpi_end49:
	.size	__arm_cp.7_0, .Lcpi_end49-__arm_cp.7_0
__arm_cp.7_1:
	.long	.L.str.23
.Lcpi_end50:
	.size	__arm_cp.7_1, .Lcpi_end50-__arm_cp.7_1
__arm_cp.7_2:
	.long	.L.str.27
.Lcpi_end51:
	.size	__arm_cp.7_2, .Lcpi_end51-__arm_cp.7_2
__arm_cp.7_3:
	.long	1342648344                      @ 0x50073018
.Lcpi_end52:
	.size	__arm_cp.7_3, .Lcpi_end52-__arm_cp.7_3
__arm_cp.7_4:
	.long	1342648320                      @ 0x50073000
.Lcpi_end53:
	.size	__arm_cp.7_4, .Lcpi_end53-__arm_cp.7_4
__arm_cp.7_5:
	.long	.L.str.24
.Lcpi_end54:
	.size	__arm_cp.7_5, .Lcpi_end54-__arm_cp.7_5
__arm_cp.7_6:
	.long	.L.str.25
.Lcpi_end55:
	.size	__arm_cp.7_6, .Lcpi_end55-__arm_cp.7_6
__arm_cp.7_7:
	.long	.L.str.26
.Lcpi_end56:
	.size	__arm_cp.7_7, .Lcpi_end56-__arm_cp.7_7
__arm_cp.7_8:
	.long	.L.str.18
.Lcpi_end57:
	.size	__arm_cp.7_8, .Lcpi_end57-__arm_cp.7_8
.Lfunc_end7:
	.size	WIFI_ReceiveData, .Lfunc_end7-WIFI_ReceiveData
	.cfi_endproc
	.cantunwind
	.fnend
                                        @ -- End function
	.section	.text.WIFI_Send_BPM,"ax",%progbits
	.hidden	WIFI_Send_BPM                   @ -- Begin function WIFI_Send_BPM
	.globl	WIFI_Send_BPM
	.p2align	2
	.type	WIFI_Send_BPM,%function
	.code	16                              @ @WIFI_Send_BPM
	.thumb_func
WIFI_Send_BPM:
.Lfunc_begin8:
	.loc	1 500 0 is_stmt 1               @ WiFi/wifi.c:500:0
	.fnstart
	.cfi_startproc
@ %bb.0:
	.save	{r7, lr}
	push	{r7, lr}
	.cfi_def_cfa_offset 8
	.cfi_offset lr, -4
	.cfi_offset r7, -8
	.pad	#72
	sub	sp, #72
	.cfi_def_cfa_offset 80
	str	r0, [sp, #68]
	movs	r0, #0
.Ltmp189:
	.loc	1 504 6 prologue_end            @ WiFi/wifi.c:504:6
	str	r0, [sp, #52]
.Ltmp190:
	.loc	1 508 6                         @ WiFi/wifi.c:508:6
	ldr	r0, [sp, #68]
.Ltmp191:
	.loc	1 508 6 is_stmt 0               @ WiFi/wifi.c:508:6
	cmp	r0, #0
	bne	.LBB8_2
	b	.LBB8_1
.LBB8_1:
	.loc	1 0 6                           @ WiFi/wifi.c:0:6
	movs	r0, #1
.Ltmp192:
	.loc	1 509 15 is_stmt 1              @ WiFi/wifi.c:509:15
	str	r0, [sp, #52]
	.loc	1 509 3 is_stmt 0               @ WiFi/wifi.c:509:3
	b	.LBB8_6
.LBB8_2:
.Ltmp193:
	.loc	1 512 14 is_stmt 1              @ WiFi/wifi.c:512:14
	ldr	r0, [sp, #68]
	.loc	1 512 12 is_stmt 0              @ WiFi/wifi.c:512:12
	str	r0, [sp, #60]
	.loc	1 513 3 is_stmt 1               @ WiFi/wifi.c:513:3
	b	.LBB8_3
.LBB8_3:                                @ =>This Inner Loop Header: Depth=1
	.loc	1 513 10 is_stmt 0              @ WiFi/wifi.c:513:10
	ldr	r0, [sp, #60]
	.loc	1 513 3                         @ WiFi/wifi.c:513:3
	cmp	r0, #0
	beq	.LBB8_5
	b	.LBB8_4
.LBB8_4:                                @   in Loop: Header=BB8_3 Depth=1
.Ltmp194:
	.loc	1 515 15 is_stmt 1              @ WiFi/wifi.c:515:15
	ldr	r0, [sp, #52]
	adds	r0, r0, #1
	str	r0, [sp, #52]
	.loc	1 516 13                        @ WiFi/wifi.c:516:13
	ldr	r0, [sp, #60]
	movs	r1, #10
	sdiv	r0, r0, r1
	str	r0, [sp, #60]
.Ltmp195:
	.loc	1 513 3                         @ WiFi/wifi.c:513:3
	b	.LBB8_3
.Ltmp196:
.LBB8_5:
	.loc	1 0 3 is_stmt 0                 @ WiFi/wifi.c:0:3
	b	.LBB8_6
.LBB8_6:
	.loc	1 519 21 is_stmt 1              @ WiFi/wifi.c:519:21
	ldr	r0, [sp, #52]
	.loc	1 519 33 is_stmt 0              @ WiFi/wifi.c:519:33
	adds	r0, r0, #1
	movs	r1, #1
	.loc	1 519 13                        @ WiFi/wifi.c:519:13
	str	r1, [sp, #44]                   @ 4-byte Spill
	bl	calloc
	.loc	1 519 11                        @ WiFi/wifi.c:519:11
	str	r0, [sp, #56]
	.loc	1 520 10 is_stmt 1              @ WiFi/wifi.c:520:10
	ldr	r0, [sp, #56]
	.loc	1 520 26 is_stmt 0              @ WiFi/wifi.c:520:26
	ldr	r2, [sp, #68]
	.loc	1 520 2                         @ WiFi/wifi.c:520:2
	ldr	r1, __arm_cp.8_0
	bl	sprintf
	.loc	1 523 13 is_stmt 1              @ WiFi/wifi.c:523:13
	ldr	r1, __arm_cp.8_1
	str	r0, [sp, #40]                   @ 4-byte Spill
	mov	r0, r1
	str	r1, [sp, #36]                   @ 4-byte Spill
	bl	strlen
	.loc	1 523 43 is_stmt 0              @ WiFi/wifi.c:523:43
	ldr	r1, __arm_cp.8_2
	ldr	r2, [r1]
	.loc	1 523 36                        @ WiFi/wifi.c:523:36
	str	r0, [sp, #32]                   @ 4-byte Spill
	mov	r0, r2
	str	r1, [sp, #28]                   @ 4-byte Spill
	bl	strlen
	.loc	1 523 34                        @ WiFi/wifi.c:523:34
	ldr	r1, [sp, #32]                   @ 4-byte Reload
	adds	r0, r1, r0
	.loc	1 523 66                        @ WiFi/wifi.c:523:66
	ldr	r2, __arm_cp.8_3
	str	r0, [sp, #24]                   @ 4-byte Spill
	mov	r0, r2
	str	r2, [sp, #20]                   @ 4-byte Spill
	bl	strlen
	.loc	1 523 64                        @ WiFi/wifi.c:523:64
	ldr	r1, [sp, #24]                   @ 4-byte Reload
	adds	r0, r1, r0
	.loc	1 523 89                        @ WiFi/wifi.c:523:89
	ldr	r1, [sp, #52]
	.loc	1 523 87                        @ WiFi/wifi.c:523:87
	adds	r0, r0, r1
	.loc	1 523 11                        @ WiFi/wifi.c:523:11
	str	r0, [sp, #48]
	movs	r1, #8
	.loc	1 525 8 is_stmt 1               @ WiFi/wifi.c:525:8
	ldr	r0, [sp, #44]                   @ 4-byte Reload
	bl	calloc
	.loc	1 525 6 is_stmt 0               @ WiFi/wifi.c:525:6
	str	r0, [sp, #64]
	.loc	1 526 21 is_stmt 1              @ WiFi/wifi.c:526:21
	ldr	r0, [sp, #48]
	.loc	1 526 14 is_stmt 0              @ WiFi/wifi.c:526:14
	ldr	r1, [sp, #44]                   @ 4-byte Reload
	bl	calloc
	.loc	1 526 2                         @ WiFi/wifi.c:526:2
	ldr	r1, [sp, #64]
	.loc	1 526 12                        @ WiFi/wifi.c:526:12
	str	r0, [r1]
	.loc	1 527 13 is_stmt 1              @ WiFi/wifi.c:527:13
	ldr	r0, [sp, #48]
	.loc	1 527 2 is_stmt 0               @ WiFi/wifi.c:527:2
	ldr	r1, [sp, #64]
	.loc	1 527 11                        @ WiFi/wifi.c:527:11
	str	r0, [r1, #4]
	.loc	1 529 9 is_stmt 1               @ WiFi/wifi.c:529:9
	ldr	r0, [sp, #64]
	.loc	1 529 14 is_stmt 0              @ WiFi/wifi.c:529:14
	ldr	r0, [r0]
	.loc	1 529 2                         @ WiFi/wifi.c:529:2
	ldr	r1, [sp, #36]                   @ 4-byte Reload
	bl	strcat
	.loc	1 530 9 is_stmt 1               @ WiFi/wifi.c:530:9
	ldr	r1, [sp, #64]
	.loc	1 530 14 is_stmt 0              @ WiFi/wifi.c:530:14
	ldr	r1, [r1]
	.loc	1 530 20                        @ WiFi/wifi.c:530:20
	ldr	r2, [sp, #28]                   @ 4-byte Reload
	ldr	r3, [r2]
	.loc	1 530 2                         @ WiFi/wifi.c:530:2
	str	r0, [sp, #16]                   @ 4-byte Spill
	mov	r0, r1
	mov	r1, r3
	bl	strcat
	.loc	1 531 9 is_stmt 1               @ WiFi/wifi.c:531:9
	ldr	r1, [sp, #64]
	.loc	1 531 14 is_stmt 0              @ WiFi/wifi.c:531:14
	ldr	r1, [r1]
	.loc	1 531 20                        @ WiFi/wifi.c:531:20
	ldr	r2, [sp, #56]
	.loc	1 531 2                         @ WiFi/wifi.c:531:2
	str	r0, [sp, #12]                   @ 4-byte Spill
	mov	r0, r1
	mov	r1, r2
	bl	strcat
	.loc	1 532 9 is_stmt 1               @ WiFi/wifi.c:532:9
	ldr	r1, [sp, #64]
	.loc	1 532 14 is_stmt 0              @ WiFi/wifi.c:532:14
	ldr	r1, [r1]
	.loc	1 532 2                         @ WiFi/wifi.c:532:2
	str	r0, [sp, #8]                    @ 4-byte Spill
	mov	r0, r1
	ldr	r1, [sp, #20]                   @ 4-byte Reload
	bl	strcat
	.loc	1 535 19 is_stmt 1              @ WiFi/wifi.c:535:19
	ldr	r1, [sp, #64]
	movs	r2, #0
	.loc	1 535 2 is_stmt 0               @ WiFi/wifi.c:535:2
	str	r0, [sp, #4]                    @ 4-byte Spill
	mov	r0, r2
	bl	WIFI_SendData
	.loc	1 537 7 is_stmt 1               @ WiFi/wifi.c:537:7
	ldr	r1, [sp, #64]
	.loc	1 537 12 is_stmt 0              @ WiFi/wifi.c:537:12
	ldr	r1, [r1]
	.loc	1 537 2                         @ WiFi/wifi.c:537:2
	str	r0, [sp]                        @ 4-byte Spill
	mov	r0, r1
	bl	free
	.loc	1 538 7 is_stmt 1               @ WiFi/wifi.c:538:7
	ldr	r0, [sp, #64]
	.loc	1 538 2 is_stmt 0               @ WiFi/wifi.c:538:2
	bl	free
	.loc	1 539 7 is_stmt 1               @ WiFi/wifi.c:539:7
	ldr	r0, [sp, #56]
	.loc	1 539 2 is_stmt 0               @ WiFi/wifi.c:539:2
	bl	free
	.loc	1 540 1 is_stmt 1               @ WiFi/wifi.c:540:1
	add	sp, #72
	pop	{r7, pc}
.Ltmp197:
	.p2align	2
@ %bb.7:
	.loc	1 0 1 is_stmt 0                 @ WiFi/wifi.c:0:1
__arm_cp.8_0:
	.long	.L.str.20
.Lcpi_end58:
	.size	__arm_cp.8_0, .Lcpi_end58-__arm_cp.8_0
__arm_cp.8_1:
	.long	GET_MSG_HEAD
.Lcpi_end59:
	.size	__arm_cp.8_1, .Lcpi_end59-__arm_cp.8_1
__arm_cp.8_2:
	.long	GET_MSG_BODY
.Lcpi_end60:
	.size	__arm_cp.8_2, .Lcpi_end60-__arm_cp.8_2
__arm_cp.8_3:
	.long	GET_MSG_TAIL
.Lcpi_end61:
	.size	__arm_cp.8_3, .Lcpi_end61-__arm_cp.8_3
.Lfunc_end8:
	.size	WIFI_Send_BPM, .Lfunc_end8-WIFI_Send_BPM
	.cfi_endproc
	.cantunwind
	.fnend
                                        @ -- End function
	.section	.text.WIFI_Send_EncryptedMsg,"ax",%progbits
	.hidden	WIFI_Send_EncryptedMsg          @ -- Begin function WIFI_Send_EncryptedMsg
	.globl	WIFI_Send_EncryptedMsg
	.p2align	2
	.type	WIFI_Send_EncryptedMsg,%function
	.code	16                              @ @WIFI_Send_EncryptedMsg
	.thumb_func
WIFI_Send_EncryptedMsg:
.Lfunc_begin9:
	.loc	1 543 0 is_stmt 1               @ WiFi/wifi.c:543:0
	.fnstart
	.cfi_startproc
@ %bb.0:
	.save	{r7, lr}
	push	{r7, lr}
	.cfi_def_cfa_offset 8
	.cfi_offset lr, -4
	.cfi_offset r7, -8
	.pad	#80
	sub	sp, #80
	.cfi_def_cfa_offset 88
	str	r0, [sp, #76]
	str	r1, [sp, #72]
	str	r2, [sp, #68]
.Ltmp198:
	.loc	1 546 18 prologue_end           @ WiFi/wifi.c:546:18
	ldr	r0, [sp, #72]
	.loc	1 546 36 is_stmt 0              @ WiFi/wifi.c:546:36
	lsls	r0, r0, #1
	.loc	1 546 6                         @ WiFi/wifi.c:546:6
	str	r0, [sp, #56]
	.loc	1 550 18 is_stmt 1              @ WiFi/wifi.c:550:18
	ldr	r0, [sp, #56]
	.loc	1 550 28 is_stmt 0              @ WiFi/wifi.c:550:28
	adds	r0, r0, #1
	movs	r1, #1
	.loc	1 550 11                        @ WiFi/wifi.c:550:11
	str	r1, [sp, #48]                   @ 4-byte Spill
	bl	calloc
	.loc	1 550 9                         @ WiFi/wifi.c:550:9
	str	r0, [sp, #60]
	.loc	1 551 17 is_stmt 1              @ WiFi/wifi.c:551:17
	ldr	r0, [sp, #76]
	.loc	1 551 31 is_stmt 0              @ WiFi/wifi.c:551:31
	ldr	r1, [sp, #60]
	.loc	1 551 39                        @ WiFi/wifi.c:551:39
	ldr	r2, [sp, #56]
	.loc	1 551 2                         @ WiFi/wifi.c:551:2
	bl	keyToStringKey
	.loc	1 554 13 is_stmt 1              @ WiFi/wifi.c:554:13
	ldr	r0, __arm_cp.9_0
	str	r0, [sp, #44]                   @ 4-byte Spill
	bl	strlen
	.loc	1 554 56 is_stmt 0              @ WiFi/wifi.c:554:56
	ldr	r1, [sp, #68]
	.loc	1 554 43                        @ WiFi/wifi.c:554:43
	lsls	r1, r1, #2
	ldr	r2, __arm_cp.9_1
	ldr	r1, [r2, r1]
	.loc	1 554 36                        @ WiFi/wifi.c:554:36
	str	r0, [sp, #40]                   @ 4-byte Spill
	mov	r0, r1
	str	r2, [sp, #36]                   @ 4-byte Spill
	bl	strlen
	.loc	1 554 34                        @ WiFi/wifi.c:554:34
	ldr	r1, [sp, #40]                   @ 4-byte Reload
	adds	r0, r1, r0
	.loc	1 554 65                        @ WiFi/wifi.c:554:65
	ldr	r2, __arm_cp.9_2
	str	r0, [sp, #32]                   @ 4-byte Spill
	mov	r0, r2
	str	r2, [sp, #28]                   @ 4-byte Spill
	bl	strlen
	.loc	1 554 63                        @ WiFi/wifi.c:554:63
	ldr	r1, [sp, #32]                   @ 4-byte Reload
	adds	r0, r1, r0
	.loc	1 554 88                        @ WiFi/wifi.c:554:88
	ldr	r1, [sp, #56]
	.loc	1 554 86                        @ WiFi/wifi.c:554:86
	adds	r0, r0, r1
	.loc	1 554 11                        @ WiFi/wifi.c:554:11
	str	r0, [sp, #52]
	movs	r1, #8
	.loc	1 557 8 is_stmt 1               @ WiFi/wifi.c:557:8
	ldr	r0, [sp, #48]                   @ 4-byte Reload
	bl	calloc
	.loc	1 557 6 is_stmt 0               @ WiFi/wifi.c:557:6
	str	r0, [sp, #64]
	.loc	1 558 21 is_stmt 1              @ WiFi/wifi.c:558:21
	ldr	r0, [sp, #52]
	.loc	1 558 14 is_stmt 0              @ WiFi/wifi.c:558:14
	ldr	r1, [sp, #48]                   @ 4-byte Reload
	bl	calloc
	.loc	1 558 2                         @ WiFi/wifi.c:558:2
	ldr	r1, [sp, #64]
	.loc	1 558 12                        @ WiFi/wifi.c:558:12
	str	r0, [r1]
	.loc	1 559 13 is_stmt 1              @ WiFi/wifi.c:559:13
	ldr	r0, [sp, #52]
	.loc	1 559 2 is_stmt 0               @ WiFi/wifi.c:559:2
	ldr	r1, [sp, #64]
	.loc	1 559 11                        @ WiFi/wifi.c:559:11
	str	r0, [r1, #4]
	.loc	1 561 9 is_stmt 1               @ WiFi/wifi.c:561:9
	ldr	r0, [sp, #64]
	.loc	1 561 14 is_stmt 0              @ WiFi/wifi.c:561:14
	ldr	r0, [r0]
	.loc	1 561 2                         @ WiFi/wifi.c:561:2
	ldr	r1, [sp, #44]                   @ 4-byte Reload
	bl	strcat
	.loc	1 562 9 is_stmt 1               @ WiFi/wifi.c:562:9
	ldr	r1, [sp, #64]
	.loc	1 562 14 is_stmt 0              @ WiFi/wifi.c:562:14
	ldr	r1, [r1]
	.loc	1 562 33                        @ WiFi/wifi.c:562:33
	ldr	r2, [sp, #68]
	.loc	1 562 20                        @ WiFi/wifi.c:562:20
	lsls	r2, r2, #2
	ldr	r3, [sp, #36]                   @ 4-byte Reload
	ldr	r2, [r3, r2]
	.loc	1 562 2                         @ WiFi/wifi.c:562:2
	str	r0, [sp, #24]                   @ 4-byte Spill
	mov	r0, r1
	mov	r1, r2
	bl	strcat
	.loc	1 563 9 is_stmt 1               @ WiFi/wifi.c:563:9
	ldr	r1, [sp, #64]
	.loc	1 563 14 is_stmt 0              @ WiFi/wifi.c:563:14
	ldr	r1, [r1]
	.loc	1 563 20                        @ WiFi/wifi.c:563:20
	ldr	r2, [sp, #60]
	.loc	1 563 2                         @ WiFi/wifi.c:563:2
	str	r0, [sp, #20]                   @ 4-byte Spill
	mov	r0, r1
	mov	r1, r2
	bl	strcat
	.loc	1 564 9 is_stmt 1               @ WiFi/wifi.c:564:9
	ldr	r1, [sp, #64]
	.loc	1 564 14 is_stmt 0              @ WiFi/wifi.c:564:14
	ldr	r1, [r1]
	.loc	1 564 2                         @ WiFi/wifi.c:564:2
	str	r0, [sp, #16]                   @ 4-byte Spill
	mov	r0, r1
	ldr	r1, [sp, #28]                   @ 4-byte Reload
	bl	strcat
	.loc	1 570 19 is_stmt 1              @ WiFi/wifi.c:570:19
	ldr	r1, [sp, #64]
	.loc	1 570 2 is_stmt 0               @ WiFi/wifi.c:570:2
	str	r0, [sp, #12]                   @ 4-byte Spill
	mov	r0, r1
	bl	printNetworkData
	.loc	1 572 19 is_stmt 1              @ WiFi/wifi.c:572:19
	ldr	r1, [sp, #64]
	movs	r0, #0
	.loc	1 572 2 is_stmt 0               @ WiFi/wifi.c:572:2
	str	r0, [sp, #8]                    @ 4-byte Spill
	ldr	r2, [sp, #8]                    @ 4-byte Reload
	bl	WIFI_SendData
	.loc	1 574 7 is_stmt 1               @ WiFi/wifi.c:574:7
	ldr	r1, [sp, #64]
	.loc	1 574 12 is_stmt 0              @ WiFi/wifi.c:574:12
	ldr	r1, [r1]
	.loc	1 574 2                         @ WiFi/wifi.c:574:2
	str	r0, [sp, #4]                    @ 4-byte Spill
	mov	r0, r1
	bl	free
	.loc	1 575 7 is_stmt 1               @ WiFi/wifi.c:575:7
	ldr	r0, [sp, #64]
	.loc	1 575 2 is_stmt 0               @ WiFi/wifi.c:575:2
	bl	free
	.loc	1 576 7 is_stmt 1               @ WiFi/wifi.c:576:7
	ldr	r0, [sp, #60]
	.loc	1 576 2 is_stmt 0               @ WiFi/wifi.c:576:2
	bl	free
	.loc	1 577 1 is_stmt 1               @ WiFi/wifi.c:577:1
	add	sp, #80
	pop	{r7, pc}
.Ltmp199:
	.p2align	2
@ %bb.1:
	.loc	1 0 1 is_stmt 0                 @ WiFi/wifi.c:0:1
__arm_cp.9_0:
	.long	GET_MSG_HEAD
.Lcpi_end62:
	.size	__arm_cp.9_0, .Lcpi_end62-__arm_cp.9_0
__arm_cp.9_1:
	.long	GET_MSG_BODY
.Lcpi_end63:
	.size	__arm_cp.9_1, .Lcpi_end63-__arm_cp.9_1
__arm_cp.9_2:
	.long	GET_MSG_TAIL
.Lcpi_end64:
	.size	__arm_cp.9_2, .Lcpi_end64-__arm_cp.9_2
.Lfunc_end9:
	.size	WIFI_Send_EncryptedMsg, .Lfunc_end9-WIFI_Send_EncryptedMsg
	.cfi_endproc
	.cantunwind
	.fnend
                                        @ -- End function
	.section	.text.keyToStringKey,"ax",%progbits
	.p2align	1                               @ -- Begin function keyToStringKey
	.type	keyToStringKey,%function
	.code	16                              @ @keyToStringKey
	.thumb_func
keyToStringKey:
.Lfunc_begin10:
	.loc	1 106 0 is_stmt 1               @ WiFi/wifi.c:106:0
	.fnstart
	.cfi_startproc
@ %bb.0:
	.pad	#24
	sub	sp, #24
	.cfi_def_cfa_offset 24
	str	r0, [sp, #20]
	str	r1, [sp, #16]
	str	r2, [sp, #12]
	movs	r0, #0
.Ltmp200:
	.loc	1 111 6 prologue_end            @ WiFi/wifi.c:111:6
	str	r0, [sp, #4]
.Ltmp201:
	.loc	1 113 11                        @ WiFi/wifi.c:113:11
	str	r0, [sp]
	.loc	1 113 7 is_stmt 0               @ WiFi/wifi.c:113:7
	b	.LBB10_1
.LBB10_1:                               @ =>This Inner Loop Header: Depth=1
.Ltmp202:
	.loc	1 113 19                        @ WiFi/wifi.c:113:19
	ldr	r0, [sp]
	.loc	1 113 24                        @ WiFi/wifi.c:113:24
	ldr	r1, [sp, #12]
.Ltmp203:
	.loc	1 113 2                         @ WiFi/wifi.c:113:2
	cmp	r0, r1
	bge	.LBB10_14
	b	.LBB10_2
.LBB10_2:                               @   in Loop: Header=BB10_1 Depth=1
.Ltmp204:
	.loc	1 116 13 is_stmt 1              @ WiFi/wifi.c:116:13
	ldr	r0, [sp]
	.loc	1 116 16 is_stmt 0              @ WiFi/wifi.c:116:16
	lsrs	r1, r0, #31
	adds	r0, r0, r1
	asrs	r0, r0, #1
	.loc	1 116 5                         @ WiFi/wifi.c:116:5
	str	r0, [sp, #4]
.Ltmp205:
	.loc	1 117 9 is_stmt 1               @ WiFi/wifi.c:117:9
	ldr	r0, [sp]
	.loc	1 117 12 is_stmt 0              @ WiFi/wifi.c:117:12
	lsrs	r1, r0, #31
	adds	r1, r0, r1
	movs	r2, #1
	bics	r1, r2
	subs	r0, r0, r1
.Ltmp206:
	.loc	1 117 7                         @ WiFi/wifi.c:117:7
	cmp	r0, #0
	bne	.LBB10_4
	b	.LBB10_3
.LBB10_3:                               @   in Loop: Header=BB10_1 Depth=1
.Ltmp207:
	.loc	1 118 13 is_stmt 1              @ WiFi/wifi.c:118:13
	ldr	r0, [sp, #20]
	.loc	1 118 17 is_stmt 0              @ WiFi/wifi.c:118:17
	ldr	r1, [sp, #4]
	.loc	1 118 13                        @ WiFi/wifi.c:118:13
	ldrb	r0, [r0, r1]
	.loc	1 118 20                        @ WiFi/wifi.c:118:20
	lsrs	r0, r0, #4
	add	r1, sp, #8
	.loc	1 118 10                        @ WiFi/wifi.c:118:10
	strb	r0, [r1]
	.loc	1 118 4                         @ WiFi/wifi.c:118:4
	b	.LBB10_5
.LBB10_4:                               @   in Loop: Header=BB10_1 Depth=1
	.loc	1 120 19 is_stmt 1              @ WiFi/wifi.c:120:19
	ldr	r0, [sp, #20]
	.loc	1 120 23 is_stmt 0              @ WiFi/wifi.c:120:23
	ldr	r1, [sp, #4]
	.loc	1 120 19                        @ WiFi/wifi.c:120:19
	ldrb	r0, [r0, r1]
	movs	r1, #15
	.loc	1 120 17                        @ WiFi/wifi.c:120:17
	ands	r0, r1
	add	r1, sp, #8
	.loc	1 120 10                        @ WiFi/wifi.c:120:10
	strb	r0, [r1]
	b	.LBB10_5
.Ltmp208:
.LBB10_5:                               @   in Loop: Header=BB10_1 Depth=1
	.loc	1 0 10                          @ WiFi/wifi.c:0:10
	add	r0, sp, #8
.Ltmp209:
	.loc	1 122 7 is_stmt 1               @ WiFi/wifi.c:122:7
	ldrb	r0, [r0]
	.loc	1 122 18 is_stmt 0              @ WiFi/wifi.c:122:18
	cmp	r0, #0
	bmi	.LBB10_8
	b	.LBB10_6
.LBB10_6:                               @   in Loop: Header=BB10_1 Depth=1
	.loc	1 0 18                          @ WiFi/wifi.c:0:18
	add	r0, sp, #8
	.loc	1 122 21                        @ WiFi/wifi.c:122:21
	ldrb	r0, [r0]
.Ltmp210:
	.loc	1 122 7                         @ WiFi/wifi.c:122:7
	cmp	r0, #9
	bgt	.LBB10_8
	b	.LBB10_7
.LBB10_7:                               @   in Loop: Header=BB10_1 Depth=1
.Ltmp211:
	.loc	1 123 27 is_stmt 1              @ WiFi/wifi.c:123:27
	ldr	r0, [sp, #8]
	.loc	1 123 33 is_stmt 0              @ WiFi/wifi.c:123:33
	adds	r0, #48
	.loc	1 123 4                         @ WiFi/wifi.c:123:4
	ldr	r1, [sp, #16]
	.loc	1 123 14                        @ WiFi/wifi.c:123:14
	ldr	r2, [sp]
	.loc	1 123 18                        @ WiFi/wifi.c:123:18
	strb	r0, [r1, r2]
	.loc	1 123 4                         @ WiFi/wifi.c:123:4
	b	.LBB10_12
.LBB10_8:                               @   in Loop: Header=BB10_1 Depth=1
	.loc	1 0 4                           @ WiFi/wifi.c:0:4
	add	r0, sp, #8
.Ltmp212:
	.loc	1 124 12 is_stmt 1              @ WiFi/wifi.c:124:12
	ldrb	r0, [r0]
	.loc	1 124 25 is_stmt 0              @ WiFi/wifi.c:124:25
	cmp	r0, #10
	blt	.LBB10_11
	b	.LBB10_9
.LBB10_9:                               @   in Loop: Header=BB10_1 Depth=1
	.loc	1 0 25                          @ WiFi/wifi.c:0:25
	add	r0, sp, #8
	.loc	1 124 28                        @ WiFi/wifi.c:124:28
	ldrb	r0, [r0]
.Ltmp213:
	.loc	1 124 12                        @ WiFi/wifi.c:124:12
	cmp	r0, #15
	bgt	.LBB10_11
	b	.LBB10_10
.LBB10_10:                              @   in Loop: Header=BB10_1 Depth=1
.Ltmp214:
	.loc	1 125 27 is_stmt 1              @ WiFi/wifi.c:125:27
	ldr	r0, [sp, #8]
	.loc	1 125 33 is_stmt 0              @ WiFi/wifi.c:125:33
	adds	r0, #87
	.loc	1 125 4                         @ WiFi/wifi.c:125:4
	ldr	r1, [sp, #16]
	.loc	1 125 14                        @ WiFi/wifi.c:125:14
	ldr	r2, [sp]
	.loc	1 125 18                        @ WiFi/wifi.c:125:18
	strb	r0, [r1, r2]
	.loc	1 125 4                         @ WiFi/wifi.c:125:4
	b	.LBB10_11
.Ltmp215:
.LBB10_11:                              @   in Loop: Header=BB10_1 Depth=1
	.loc	1 0 4                           @ WiFi/wifi.c:0:4
	b	.LBB10_12
.LBB10_12:                              @   in Loop: Header=BB10_1 Depth=1
	.loc	1 126 2 is_stmt 1               @ WiFi/wifi.c:126:2
	b	.LBB10_13
.Ltmp216:
.LBB10_13:                              @   in Loop: Header=BB10_1 Depth=1
	.loc	1 113 31                        @ WiFi/wifi.c:113:31
	ldr	r0, [sp]
	adds	r0, r0, #1
	str	r0, [sp]
	.loc	1 113 2 is_stmt 0               @ WiFi/wifi.c:113:2
	b	.LBB10_1
.Ltmp217:
.LBB10_14:
	.loc	1 129 1 is_stmt 1               @ WiFi/wifi.c:129:1
	add	sp, #24
	bx	lr
.Ltmp218:
.Lfunc_end10:
	.size	keyToStringKey, .Lfunc_end10-keyToStringKey
	.cfi_endproc
	.cantunwind
	.fnend
                                        @ -- End function
	.section	.text.WIFI_Send_DigitallySignedData,"ax",%progbits
	.hidden	WIFI_Send_DigitallySignedData   @ -- Begin function WIFI_Send_DigitallySignedData
	.globl	WIFI_Send_DigitallySignedData
	.p2align	1
	.type	WIFI_Send_DigitallySignedData,%function
	.code	16                              @ @WIFI_Send_DigitallySignedData
	.thumb_func
WIFI_Send_DigitallySignedData:
.Lfunc_begin11:
	.loc	1 580 0                         @ WiFi/wifi.c:580:0
	.fnstart
	.cfi_startproc
@ %bb.0:
	.save	{r7, lr}
	push	{r7, lr}
	.cfi_def_cfa_offset 8
	.cfi_offset lr, -4
	.cfi_offset r7, -8
	.pad	#16
	sub	sp, #16
	.cfi_def_cfa_offset 24
	str	r0, [sp, #12]
.Ltmp219:
	.loc	1 583 25 prologue_end           @ WiFi/wifi.c:583:25
	ldr	r0, [sp, #12]
	movs	r1, #16
	movs	r2, #0
	.loc	1 583 2 is_stmt 0               @ WiFi/wifi.c:583:2
	bl	WIFI_Send_EncryptedMsg
	.loc	1 584 25 is_stmt 1              @ WiFi/wifi.c:584:25
	ldr	r0, [sp, #12]
	.loc	1 584 30 is_stmt 0              @ WiFi/wifi.c:584:30
	adds	r0, #17
	movs	r1, #24
	movs	r2, #1
	.loc	1 584 2                         @ WiFi/wifi.c:584:2
	str	r1, [sp, #4]                    @ 4-byte Spill
	bl	WIFI_Send_EncryptedMsg
	.loc	1 585 25 is_stmt 1              @ WiFi/wifi.c:585:25
	ldr	r0, [sp, #12]
	.loc	1 585 30 is_stmt 0              @ WiFi/wifi.c:585:30
	adds	r0, #42
	movs	r2, #2
	.loc	1 585 2                         @ WiFi/wifi.c:585:2
	ldr	r1, [sp, #4]                    @ 4-byte Reload
	bl	WIFI_Send_EncryptedMsg
	.loc	1 586 25 is_stmt 1              @ WiFi/wifi.c:586:25
	ldr	r0, [sp, #12]
	.loc	1 586 30 is_stmt 0              @ WiFi/wifi.c:586:30
	adds	r0, #67
	movs	r2, #3
	.loc	1 586 2                         @ WiFi/wifi.c:586:2
	ldr	r1, [sp, #4]                    @ 4-byte Reload
	bl	WIFI_Send_EncryptedMsg
	.loc	1 587 25 is_stmt 1              @ WiFi/wifi.c:587:25
	ldr	r0, [sp, #12]
	.loc	1 587 30 is_stmt 0              @ WiFi/wifi.c:587:30
	adds	r0, #92
	movs	r2, #4
	.loc	1 587 2                         @ WiFi/wifi.c:587:2
	ldr	r1, [sp, #4]                    @ 4-byte Reload
	bl	WIFI_Send_EncryptedMsg
	.loc	1 588 2 is_stmt 1               @ WiFi/wifi.c:588:2
	add	sp, #16
	pop	{r7, pc}
.Ltmp220:
.Lfunc_end11:
	.size	WIFI_Send_DigitallySignedData, .Lfunc_end11-WIFI_Send_DigitallySignedData
	.cfi_endproc
	.cantunwind
	.fnend
                                        @ -- End function
	.section	.text.WIFI_Send_EncryptedDigitallySignedData,"ax",%progbits
	.hidden	WIFI_Send_EncryptedDigitallySignedData @ -- Begin function WIFI_Send_EncryptedDigitallySignedData
	.globl	WIFI_Send_EncryptedDigitallySignedData
	.p2align	2
	.type	WIFI_Send_EncryptedDigitallySignedData,%function
	.code	16                              @ @WIFI_Send_EncryptedDigitallySignedData
	.thumb_func
WIFI_Send_EncryptedDigitallySignedData:
.Lfunc_begin12:
	.loc	1 592 0                         @ WiFi/wifi.c:592:0
	.fnstart
	.cfi_startproc
@ %bb.0:
	.save	{r4, lr}
	push	{r4, lr}
	.cfi_def_cfa_offset 8
	.cfi_offset lr, -4
	.cfi_offset r4, -8
	.pad	#128
	sub	sp, #128
	.cfi_def_cfa_offset 136
	str	r0, [sp, #124]
.Ltmp221:
	.loc	1 595 6 prologue_end            @ WiFi/wifi.c:595:6
	ldr	r0, __arm_cp.12_0
	add	r1, sp, #96
	ldm	r0!, {r2, r3}
	stm	r1!, {r2, r3}
	ldm	r0!, {r2, r3, r4}
	stm	r1!, {r2, r3, r4}
	movs	r0, #0
	.loc	1 596 6                         @ WiFi/wifi.c:596:6
	str	r0, [sp, #92]
	.loc	1 598 14                        @ WiFi/wifi.c:598:14
	ldr	r1, __arm_cp.12_1
	str	r0, [sp, #88]                   @ 4-byte Spill
	mov	r0, r1
	str	r1, [sp, #84]                   @ 4-byte Spill
	bl	strlen
	.loc	1 598 11 is_stmt 0              @ WiFi/wifi.c:598:11
	ldr	r1, [sp, #92]
	adds	r0, r1, r0
	str	r0, [sp, #92]
	.loc	1 599 21 is_stmt 1              @ WiFi/wifi.c:599:21
	ldr	r0, __arm_cp.12_2
	ldr	r1, [r0]
	.loc	1 599 14 is_stmt 0              @ WiFi/wifi.c:599:14
	str	r0, [sp, #80]                   @ 4-byte Spill
	mov	r0, r1
	bl	strlen
	.loc	1 599 11                        @ WiFi/wifi.c:599:11
	ldr	r1, [sp, #92]
	adds	r0, r1, r0
	str	r0, [sp, #92]
	.loc	1 600 18 is_stmt 1              @ WiFi/wifi.c:600:18
	ldr	r0, [sp, #96]
	.loc	1 600 16 is_stmt 0              @ WiFi/wifi.c:600:16
	lsls	r0, r0, #1
	.loc	1 600 11                        @ WiFi/wifi.c:600:11
	ldr	r1, [sp, #92]
	.loc	1 600 32                        @ WiFi/wifi.c:600:32
	adds	r0, r0, r1
	.loc	1 600 11                        @ WiFi/wifi.c:600:11
	adds	r0, r0, #1
	str	r0, [sp, #92]
	.loc	1 601 21 is_stmt 1              @ WiFi/wifi.c:601:21
	ldr	r0, [sp, #80]                   @ 4-byte Reload
	ldr	r0, [r0, #4]
	.loc	1 601 14 is_stmt 0              @ WiFi/wifi.c:601:14
	bl	strlen
	.loc	1 601 11                        @ WiFi/wifi.c:601:11
	ldr	r1, [sp, #92]
	adds	r0, r1, r0
	str	r0, [sp, #92]
	.loc	1 602 18 is_stmt 1              @ WiFi/wifi.c:602:18
	ldr	r0, [sp, #100]
	.loc	1 602 16 is_stmt 0              @ WiFi/wifi.c:602:16
	lsls	r0, r0, #1
	.loc	1 602 11                        @ WiFi/wifi.c:602:11
	ldr	r1, [sp, #92]
	.loc	1 602 34                        @ WiFi/wifi.c:602:34
	adds	r0, r0, r1
	.loc	1 602 11                        @ WiFi/wifi.c:602:11
	adds	r0, r0, #1
	str	r0, [sp, #92]
	.loc	1 603 21 is_stmt 1              @ WiFi/wifi.c:603:21
	ldr	r0, [sp, #80]                   @ 4-byte Reload
	ldr	r0, [r0, #8]
	.loc	1 603 14 is_stmt 0              @ WiFi/wifi.c:603:14
	bl	strlen
	.loc	1 603 11                        @ WiFi/wifi.c:603:11
	ldr	r1, [sp, #92]
	adds	r0, r1, r0
	str	r0, [sp, #92]
	.loc	1 604 18 is_stmt 1              @ WiFi/wifi.c:604:18
	ldr	r0, [sp, #104]
	.loc	1 604 16 is_stmt 0              @ WiFi/wifi.c:604:16
	lsls	r0, r0, #1
	.loc	1 604 11                        @ WiFi/wifi.c:604:11
	ldr	r1, [sp, #92]
	.loc	1 604 34                        @ WiFi/wifi.c:604:34
	adds	r0, r0, r1
	.loc	1 604 11                        @ WiFi/wifi.c:604:11
	adds	r0, r0, #1
	str	r0, [sp, #92]
	.loc	1 605 21 is_stmt 1              @ WiFi/wifi.c:605:21
	ldr	r0, [sp, #80]                   @ 4-byte Reload
	ldr	r0, [r0, #12]
	.loc	1 605 14 is_stmt 0              @ WiFi/wifi.c:605:14
	bl	strlen
	.loc	1 605 11                        @ WiFi/wifi.c:605:11
	ldr	r1, [sp, #92]
	adds	r0, r1, r0
	str	r0, [sp, #92]
	.loc	1 606 18 is_stmt 1              @ WiFi/wifi.c:606:18
	ldr	r0, [sp, #108]
	.loc	1 606 16 is_stmt 0              @ WiFi/wifi.c:606:16
	lsls	r0, r0, #1
	.loc	1 606 11                        @ WiFi/wifi.c:606:11
	ldr	r1, [sp, #92]
	.loc	1 606 38                        @ WiFi/wifi.c:606:38
	adds	r0, r0, r1
	.loc	1 606 11                        @ WiFi/wifi.c:606:11
	adds	r0, r0, #1
	str	r0, [sp, #92]
	.loc	1 607 21 is_stmt 1              @ WiFi/wifi.c:607:21
	ldr	r0, [sp, #80]                   @ 4-byte Reload
	ldr	r0, [r0, #16]
	.loc	1 607 14 is_stmt 0              @ WiFi/wifi.c:607:14
	bl	strlen
	.loc	1 607 11                        @ WiFi/wifi.c:607:11
	ldr	r1, [sp, #92]
	adds	r0, r1, r0
	str	r0, [sp, #92]
	.loc	1 608 18 is_stmt 1              @ WiFi/wifi.c:608:18
	ldr	r0, [sp, #112]
	.loc	1 608 16 is_stmt 0              @ WiFi/wifi.c:608:16
	lsls	r0, r0, #1
	.loc	1 608 11                        @ WiFi/wifi.c:608:11
	ldr	r1, [sp, #92]
	adds	r0, r1, r0
	str	r0, [sp, #92]
	.loc	1 609 14 is_stmt 1              @ WiFi/wifi.c:609:14
	ldr	r0, __arm_cp.12_3
	str	r0, [sp, #76]                   @ 4-byte Spill
	bl	strlen
	.loc	1 609 11 is_stmt 0              @ WiFi/wifi.c:609:11
	ldr	r1, [sp, #92]
	adds	r0, r1, r0
	str	r0, [sp, #92]
	movs	r0, #1
	movs	r1, #8
	.loc	1 612 8 is_stmt 1               @ WiFi/wifi.c:612:8
	str	r0, [sp, #72]                   @ 4-byte Spill
	bl	calloc
	.loc	1 612 6 is_stmt 0               @ WiFi/wifi.c:612:6
	str	r0, [sp, #120]
	.loc	1 613 21 is_stmt 1              @ WiFi/wifi.c:613:21
	ldr	r0, [sp, #92]
	.loc	1 613 14 is_stmt 0              @ WiFi/wifi.c:613:14
	ldr	r1, [sp, #72]                   @ 4-byte Reload
	bl	calloc
	.loc	1 613 2                         @ WiFi/wifi.c:613:2
	ldr	r1, [sp, #120]
	.loc	1 613 12                        @ WiFi/wifi.c:613:12
	str	r0, [r1]
	.loc	1 614 13 is_stmt 1              @ WiFi/wifi.c:614:13
	ldr	r0, [sp, #92]
	.loc	1 614 2 is_stmt 0               @ WiFi/wifi.c:614:2
	ldr	r1, [sp, #120]
	.loc	1 614 11                        @ WiFi/wifi.c:614:11
	str	r0, [r1, #4]
	.loc	1 616 9 is_stmt 1               @ WiFi/wifi.c:616:9
	ldr	r0, [sp, #120]
	.loc	1 616 14 is_stmt 0              @ WiFi/wifi.c:616:14
	ldr	r0, [r0]
	.loc	1 616 2                         @ WiFi/wifi.c:616:2
	ldr	r1, [sp, #84]                   @ 4-byte Reload
	bl	strcat
	.loc	1 618 9 is_stmt 1               @ WiFi/wifi.c:618:9
	ldr	r1, [sp, #120]
	.loc	1 618 14 is_stmt 0              @ WiFi/wifi.c:618:14
	ldr	r1, [r1]
	.loc	1 618 20                        @ WiFi/wifi.c:618:20
	ldr	r2, [sp, #80]                   @ 4-byte Reload
	ldr	r3, [r2]
	.loc	1 618 2                         @ WiFi/wifi.c:618:2
	str	r0, [sp, #68]                   @ 4-byte Spill
	mov	r0, r1
	mov	r1, r3
	bl	strcat
	.loc	1 619 22 is_stmt 1              @ WiFi/wifi.c:619:22
	ldr	r1, [sp, #96]
	.loc	1 619 20 is_stmt 0              @ WiFi/wifi.c:619:20
	lsls	r1, r1, #1
	.loc	1 619 36                        @ WiFi/wifi.c:619:36
	adds	r1, r1, #1
	.loc	1 619 11                        @ WiFi/wifi.c:619:11
	str	r0, [sp, #64]                   @ 4-byte Spill
	mov	r0, r1
	ldr	r1, [sp, #72]                   @ 4-byte Reload
	bl	calloc
	.loc	1 619 9                         @ WiFi/wifi.c:619:9
	str	r0, [sp, #116]
	.loc	1 620 17 is_stmt 1              @ WiFi/wifi.c:620:17
	ldr	r0, [sp, #124]
	.loc	1 620 28 is_stmt 0              @ WiFi/wifi.c:620:28
	ldr	r1, [sp, #116]
	.loc	1 620 40                        @ WiFi/wifi.c:620:40
	ldr	r2, [sp, #96]
	.loc	1 620 38                        @ WiFi/wifi.c:620:38
	lsls	r2, r2, #1
	.loc	1 620 2                         @ WiFi/wifi.c:620:2
	bl	keyToStringKey
	.loc	1 621 9 is_stmt 1               @ WiFi/wifi.c:621:9
	ldr	r0, [sp, #120]
	.loc	1 621 14 is_stmt 0              @ WiFi/wifi.c:621:14
	ldr	r0, [r0]
	.loc	1 621 20                        @ WiFi/wifi.c:621:20
	ldr	r1, [sp, #116]
	.loc	1 621 2                         @ WiFi/wifi.c:621:2
	bl	strcat
	.loc	1 622 7 is_stmt 1               @ WiFi/wifi.c:622:7
	ldr	r1, [sp, #116]
	.loc	1 622 2 is_stmt 0               @ WiFi/wifi.c:622:2
	str	r0, [sp, #60]                   @ 4-byte Spill
	mov	r0, r1
	bl	free
	.loc	1 623 9 is_stmt 1               @ WiFi/wifi.c:623:9
	ldr	r0, [sp, #120]
	.loc	1 623 14 is_stmt 0              @ WiFi/wifi.c:623:14
	ldr	r0, [r0]
	.loc	1 623 2                         @ WiFi/wifi.c:623:2
	ldr	r1, __arm_cp.12_4
	str	r1, [sp, #56]                   @ 4-byte Spill
	bl	strcat
	.loc	1 625 9 is_stmt 1               @ WiFi/wifi.c:625:9
	ldr	r1, [sp, #120]
	.loc	1 625 14 is_stmt 0              @ WiFi/wifi.c:625:14
	ldr	r1, [r1]
	.loc	1 625 20                        @ WiFi/wifi.c:625:20
	ldr	r2, [sp, #80]                   @ 4-byte Reload
	ldr	r3, [r2, #4]
	.loc	1 625 2                         @ WiFi/wifi.c:625:2
	str	r0, [sp, #52]                   @ 4-byte Spill
	mov	r0, r1
	mov	r1, r3
	bl	strcat
	.loc	1 626 22 is_stmt 1              @ WiFi/wifi.c:626:22
	ldr	r1, [sp, #100]
	.loc	1 626 20 is_stmt 0              @ WiFi/wifi.c:626:20
	lsls	r1, r1, #1
	.loc	1 626 38                        @ WiFi/wifi.c:626:38
	adds	r1, r1, #1
	.loc	1 626 11                        @ WiFi/wifi.c:626:11
	str	r0, [sp, #48]                   @ 4-byte Spill
	mov	r0, r1
	ldr	r1, [sp, #72]                   @ 4-byte Reload
	bl	calloc
	.loc	1 626 9                         @ WiFi/wifi.c:626:9
	str	r0, [sp, #116]
	.loc	1 627 17 is_stmt 1              @ WiFi/wifi.c:627:17
	ldr	r0, [sp, #124]
	.loc	1 627 22 is_stmt 0              @ WiFi/wifi.c:627:22
	adds	r0, #17
	.loc	1 627 31                        @ WiFi/wifi.c:627:31
	ldr	r1, [sp, #116]
	.loc	1 627 43                        @ WiFi/wifi.c:627:43
	ldr	r2, [sp, #100]
	.loc	1 627 41                        @ WiFi/wifi.c:627:41
	lsls	r2, r2, #1
	.loc	1 627 2                         @ WiFi/wifi.c:627:2
	bl	keyToStringKey
	.loc	1 628 9 is_stmt 1               @ WiFi/wifi.c:628:9
	ldr	r0, [sp, #120]
	.loc	1 628 14 is_stmt 0              @ WiFi/wifi.c:628:14
	ldr	r0, [r0]
	.loc	1 628 20                        @ WiFi/wifi.c:628:20
	ldr	r1, [sp, #116]
	.loc	1 628 2                         @ WiFi/wifi.c:628:2
	bl	strcat
	.loc	1 629 7 is_stmt 1               @ WiFi/wifi.c:629:7
	ldr	r1, [sp, #116]
	.loc	1 629 2 is_stmt 0               @ WiFi/wifi.c:629:2
	str	r0, [sp, #44]                   @ 4-byte Spill
	mov	r0, r1
	bl	free
	.loc	1 630 9 is_stmt 1               @ WiFi/wifi.c:630:9
	ldr	r0, [sp, #120]
	.loc	1 630 14 is_stmt 0              @ WiFi/wifi.c:630:14
	ldr	r0, [r0]
	.loc	1 630 2                         @ WiFi/wifi.c:630:2
	ldr	r1, [sp, #56]                   @ 4-byte Reload
	bl	strcat
	.loc	1 632 9 is_stmt 1               @ WiFi/wifi.c:632:9
	ldr	r1, [sp, #120]
	.loc	1 632 14 is_stmt 0              @ WiFi/wifi.c:632:14
	ldr	r1, [r1]
	.loc	1 632 20                        @ WiFi/wifi.c:632:20
	ldr	r2, [sp, #80]                   @ 4-byte Reload
	ldr	r3, [r2, #8]
	.loc	1 632 2                         @ WiFi/wifi.c:632:2
	str	r0, [sp, #40]                   @ 4-byte Spill
	mov	r0, r1
	mov	r1, r3
	bl	strcat
	.loc	1 633 22 is_stmt 1              @ WiFi/wifi.c:633:22
	ldr	r1, [sp, #104]
	.loc	1 633 20 is_stmt 0              @ WiFi/wifi.c:633:20
	lsls	r1, r1, #1
	.loc	1 633 38                        @ WiFi/wifi.c:633:38
	adds	r1, r1, #1
	.loc	1 633 11                        @ WiFi/wifi.c:633:11
	str	r0, [sp, #36]                   @ 4-byte Spill
	mov	r0, r1
	ldr	r1, [sp, #72]                   @ 4-byte Reload
	bl	calloc
	.loc	1 633 9                         @ WiFi/wifi.c:633:9
	str	r0, [sp, #116]
	.loc	1 634 17 is_stmt 1              @ WiFi/wifi.c:634:17
	ldr	r0, [sp, #124]
	.loc	1 634 22 is_stmt 0              @ WiFi/wifi.c:634:22
	adds	r0, #42
	.loc	1 634 31                        @ WiFi/wifi.c:634:31
	ldr	r1, [sp, #116]
	.loc	1 634 43                        @ WiFi/wifi.c:634:43
	ldr	r2, [sp, #104]
	.loc	1 634 41                        @ WiFi/wifi.c:634:41
	lsls	r2, r2, #1
	.loc	1 634 2                         @ WiFi/wifi.c:634:2
	bl	keyToStringKey
	.loc	1 635 9 is_stmt 1               @ WiFi/wifi.c:635:9
	ldr	r0, [sp, #120]
	.loc	1 635 14 is_stmt 0              @ WiFi/wifi.c:635:14
	ldr	r0, [r0]
	.loc	1 635 20                        @ WiFi/wifi.c:635:20
	ldr	r1, [sp, #116]
	.loc	1 635 2                         @ WiFi/wifi.c:635:2
	bl	strcat
	.loc	1 636 7 is_stmt 1               @ WiFi/wifi.c:636:7
	ldr	r1, [sp, #116]
	.loc	1 636 2 is_stmt 0               @ WiFi/wifi.c:636:2
	str	r0, [sp, #32]                   @ 4-byte Spill
	mov	r0, r1
	bl	free
	.loc	1 637 9 is_stmt 1               @ WiFi/wifi.c:637:9
	ldr	r0, [sp, #120]
	.loc	1 637 14 is_stmt 0              @ WiFi/wifi.c:637:14
	ldr	r0, [r0]
	.loc	1 637 2                         @ WiFi/wifi.c:637:2
	ldr	r1, [sp, #56]                   @ 4-byte Reload
	bl	strcat
	.loc	1 639 9 is_stmt 1               @ WiFi/wifi.c:639:9
	ldr	r1, [sp, #120]
	.loc	1 639 14 is_stmt 0              @ WiFi/wifi.c:639:14
	ldr	r1, [r1]
	.loc	1 639 20                        @ WiFi/wifi.c:639:20
	ldr	r2, [sp, #80]                   @ 4-byte Reload
	ldr	r3, [r2, #12]
	.loc	1 639 2                         @ WiFi/wifi.c:639:2
	str	r0, [sp, #28]                   @ 4-byte Spill
	mov	r0, r1
	mov	r1, r3
	bl	strcat
	.loc	1 640 22 is_stmt 1              @ WiFi/wifi.c:640:22
	ldr	r1, [sp, #108]
	.loc	1 640 20 is_stmt 0              @ WiFi/wifi.c:640:20
	lsls	r1, r1, #1
	.loc	1 640 42                        @ WiFi/wifi.c:640:42
	adds	r1, r1, #1
	.loc	1 640 11                        @ WiFi/wifi.c:640:11
	str	r0, [sp, #24]                   @ 4-byte Spill
	mov	r0, r1
	ldr	r1, [sp, #72]                   @ 4-byte Reload
	bl	calloc
	.loc	1 640 9                         @ WiFi/wifi.c:640:9
	str	r0, [sp, #116]
	.loc	1 641 17 is_stmt 1              @ WiFi/wifi.c:641:17
	ldr	r0, [sp, #124]
	.loc	1 641 22 is_stmt 0              @ WiFi/wifi.c:641:22
	adds	r0, #67
	.loc	1 641 25                        @ WiFi/wifi.c:641:25
	ldr	r1, [sp, #116]
	.loc	1 641 37                        @ WiFi/wifi.c:641:37
	ldr	r2, [sp, #108]
	.loc	1 641 35                        @ WiFi/wifi.c:641:35
	lsls	r2, r2, #1
	.loc	1 641 2                         @ WiFi/wifi.c:641:2
	bl	keyToStringKey
	.loc	1 642 9 is_stmt 1               @ WiFi/wifi.c:642:9
	ldr	r0, [sp, #120]
	.loc	1 642 14 is_stmt 0              @ WiFi/wifi.c:642:14
	ldr	r0, [r0]
	.loc	1 642 20                        @ WiFi/wifi.c:642:20
	ldr	r1, [sp, #116]
	.loc	1 642 2                         @ WiFi/wifi.c:642:2
	bl	strcat
	.loc	1 643 7 is_stmt 1               @ WiFi/wifi.c:643:7
	ldr	r1, [sp, #116]
	.loc	1 643 2 is_stmt 0               @ WiFi/wifi.c:643:2
	str	r0, [sp, #20]                   @ 4-byte Spill
	mov	r0, r1
	bl	free
	.loc	1 644 9 is_stmt 1               @ WiFi/wifi.c:644:9
	ldr	r0, [sp, #120]
	.loc	1 644 14 is_stmt 0              @ WiFi/wifi.c:644:14
	ldr	r0, [r0]
	.loc	1 644 2                         @ WiFi/wifi.c:644:2
	ldr	r1, [sp, #56]                   @ 4-byte Reload
	bl	strcat
	.loc	1 646 9 is_stmt 1               @ WiFi/wifi.c:646:9
	ldr	r1, [sp, #120]
	.loc	1 646 14 is_stmt 0              @ WiFi/wifi.c:646:14
	ldr	r1, [r1]
	.loc	1 646 20                        @ WiFi/wifi.c:646:20
	ldr	r2, [sp, #80]                   @ 4-byte Reload
	ldr	r3, [r2, #16]
	.loc	1 646 2                         @ WiFi/wifi.c:646:2
	str	r0, [sp, #16]                   @ 4-byte Spill
	mov	r0, r1
	mov	r1, r3
	bl	strcat
	.loc	1 647 22 is_stmt 1              @ WiFi/wifi.c:647:22
	ldr	r1, [sp, #112]
	.loc	1 647 20 is_stmt 0              @ WiFi/wifi.c:647:20
	lsls	r1, r1, #1
	.loc	1 647 42                        @ WiFi/wifi.c:647:42
	adds	r1, r1, #1
	.loc	1 647 11                        @ WiFi/wifi.c:647:11
	str	r0, [sp, #12]                   @ 4-byte Spill
	mov	r0, r1
	ldr	r1, [sp, #72]                   @ 4-byte Reload
	bl	calloc
	.loc	1 647 9                         @ WiFi/wifi.c:647:9
	str	r0, [sp, #116]
	.loc	1 648 17 is_stmt 1              @ WiFi/wifi.c:648:17
	ldr	r0, [sp, #124]
	.loc	1 648 22 is_stmt 0              @ WiFi/wifi.c:648:22
	adds	r0, #92
	.loc	1 648 25                        @ WiFi/wifi.c:648:25
	ldr	r1, [sp, #116]
	.loc	1 648 37                        @ WiFi/wifi.c:648:37
	ldr	r2, [sp, #112]
	.loc	1 648 35                        @ WiFi/wifi.c:648:35
	lsls	r2, r2, #1
	.loc	1 648 2                         @ WiFi/wifi.c:648:2
	bl	keyToStringKey
	.loc	1 649 9 is_stmt 1               @ WiFi/wifi.c:649:9
	ldr	r0, [sp, #120]
	.loc	1 649 14 is_stmt 0              @ WiFi/wifi.c:649:14
	ldr	r0, [r0]
	.loc	1 649 20                        @ WiFi/wifi.c:649:20
	ldr	r1, [sp, #116]
	.loc	1 649 2                         @ WiFi/wifi.c:649:2
	bl	strcat
	.loc	1 650 7 is_stmt 1               @ WiFi/wifi.c:650:7
	ldr	r1, [sp, #116]
	.loc	1 650 2 is_stmt 0               @ WiFi/wifi.c:650:2
	str	r0, [sp, #8]                    @ 4-byte Spill
	mov	r0, r1
	bl	free
	.loc	1 652 9 is_stmt 1               @ WiFi/wifi.c:652:9
	ldr	r0, [sp, #120]
	.loc	1 652 14 is_stmt 0              @ WiFi/wifi.c:652:14
	ldr	r0, [r0]
	.loc	1 652 2                         @ WiFi/wifi.c:652:2
	ldr	r1, [sp, #76]                   @ 4-byte Reload
	bl	strcat
	.loc	1 654 19 is_stmt 1              @ WiFi/wifi.c:654:19
	ldr	r1, [sp, #120]
	.loc	1 654 2 is_stmt 0               @ WiFi/wifi.c:654:2
	str	r0, [sp, #4]                    @ 4-byte Spill
	mov	r0, r1
	bl	printNetworkData
	.loc	1 656 19 is_stmt 1              @ WiFi/wifi.c:656:19
	ldr	r1, [sp, #120]
	.loc	1 656 2 is_stmt 0               @ WiFi/wifi.c:656:2
	ldr	r0, [sp, #88]                   @ 4-byte Reload
	ldr	r2, [sp, #88]                   @ 4-byte Reload
	bl	WIFI_SendData
	.loc	1 658 7 is_stmt 1               @ WiFi/wifi.c:658:7
	ldr	r1, [sp, #120]
	.loc	1 658 12 is_stmt 0              @ WiFi/wifi.c:658:12
	ldr	r1, [r1]
	.loc	1 658 2                         @ WiFi/wifi.c:658:2
	str	r0, [sp]                        @ 4-byte Spill
	mov	r0, r1
	bl	free
	.loc	1 659 7 is_stmt 1               @ WiFi/wifi.c:659:7
	ldr	r0, [sp, #120]
	.loc	1 659 2 is_stmt 0               @ WiFi/wifi.c:659:2
	bl	free
	.loc	1 660 1 is_stmt 1               @ WiFi/wifi.c:660:1
	add	sp, #128
	pop	{r4, pc}
.Ltmp222:
	.p2align	2
@ %bb.1:
	.loc	1 0 1 is_stmt 0                 @ WiFi/wifi.c:0:1
__arm_cp.12_0:
	.long	.L__const.WIFI_Send_EncryptedDigitallySignedData.dsdLen
.Lcpi_end65:
	.size	__arm_cp.12_0, .Lcpi_end65-__arm_cp.12_0
__arm_cp.12_1:
	.long	GET_MSG_HEAD
.Lcpi_end66:
	.size	__arm_cp.12_1, .Lcpi_end66-__arm_cp.12_1
__arm_cp.12_2:
	.long	GET_MSG_BODY
.Lcpi_end67:
	.size	__arm_cp.12_2, .Lcpi_end67-__arm_cp.12_2
__arm_cp.12_3:
	.long	GET_MSG_TAIL
.Lcpi_end68:
	.size	__arm_cp.12_3, .Lcpi_end68-__arm_cp.12_3
__arm_cp.12_4:
	.long	GET_MSG_AND
.Lcpi_end69:
	.size	__arm_cp.12_4, .Lcpi_end69-__arm_cp.12_4
.Lfunc_end12:
	.size	WIFI_Send_EncryptedDigitallySignedData, .Lfunc_end12-WIFI_Send_EncryptedDigitallySignedData
	.cfi_endproc
	.cantunwind
	.fnend
                                        @ -- End function
	.hidden	ATCommand_AT                    @ @ATCommand_AT
	.type	ATCommand_AT,%object
	.section	.rodata.ATCommand_AT,"a",%progbits
	.globl	ATCommand_AT
ATCommand_AT:
	.asciz	"AT\r\n"
	.size	ATCommand_AT, 5

	.hidden	ATCommand_RST                   @ @ATCommand_RST
	.type	ATCommand_RST,%object
	.section	.rodata.ATCommand_RST,"a",%progbits
	.globl	ATCommand_RST
ATCommand_RST:
	.asciz	"AT+RST\r\n"
	.size	ATCommand_RST, 9

	.hidden	ATCommand_GMR                   @ @ATCommand_GMR
	.type	ATCommand_GMR,%object
	.section	.rodata.ATCommand_GMR,"a",%progbits
	.globl	ATCommand_GMR
ATCommand_GMR:
	.asciz	"AT+GMR\r\n"
	.size	ATCommand_GMR, 9

	.hidden	ATCommand_END                   @ @ATCommand_END
	.type	ATCommand_END,%object
	.section	.rodata.ATCommand_END,"a",%progbits
	.globl	ATCommand_END
ATCommand_END:
	.asciz	"\r\n"
	.size	ATCommand_END, 3

	.hidden	ATCommand_CWMODE_GET            @ @ATCommand_CWMODE_GET
	.type	ATCommand_CWMODE_GET,%object
	.section	.rodata.ATCommand_CWMODE_GET,"a",%progbits
	.globl	ATCommand_CWMODE_GET
ATCommand_CWMODE_GET:
	.asciz	"AT+CWMODE?\r\n"
	.size	ATCommand_CWMODE_GET, 13

	.hidden	ATCommand_CWMODE_SET1           @ @ATCommand_CWMODE_SET1
	.type	ATCommand_CWMODE_SET1,%object
	.section	.rodata.ATCommand_CWMODE_SET1,"a",%progbits
	.globl	ATCommand_CWMODE_SET1
ATCommand_CWMODE_SET1:
	.asciz	"AT+CWMODE=1\r\n"
	.size	ATCommand_CWMODE_SET1, 14

	.hidden	ATCommand_CWMODE_SET2           @ @ATCommand_CWMODE_SET2
	.type	ATCommand_CWMODE_SET2,%object
	.section	.rodata.ATCommand_CWMODE_SET2,"a",%progbits
	.globl	ATCommand_CWMODE_SET2
ATCommand_CWMODE_SET2:
	.asciz	"AT+CWMODE=2\r\n"
	.size	ATCommand_CWMODE_SET2, 14

	.hidden	ATCommand_CWMODE_SET3           @ @ATCommand_CWMODE_SET3
	.type	ATCommand_CWMODE_SET3,%object
	.section	.rodata.ATCommand_CWMODE_SET3,"a",%progbits
	.globl	ATCommand_CWMODE_SET3
ATCommand_CWMODE_SET3:
	.asciz	"AT+CWMODE=3\r\n"
	.size	ATCommand_CWMODE_SET3, 14

	.hidden	ATCommand_CWJAP_GET             @ @ATCommand_CWJAP_GET
	.type	ATCommand_CWJAP_GET,%object
	.section	.rodata.ATCommand_CWJAP_GET,"a",%progbits
	.globl	ATCommand_CWJAP_GET
ATCommand_CWJAP_GET:
	.asciz	"AT+CWJAP=?\r\n"
	.size	ATCommand_CWJAP_GET, 13

	.hidden	ATCommand_CWJAP_SET             @ @ATCommand_CWJAP_SET
	.type	ATCommand_CWJAP_SET,%object
	.section	.rodata.ATCommand_CWJAP_SET,"a",%progbits
	.globl	ATCommand_CWJAP_SET
ATCommand_CWJAP_SET:
	.asciz	"AT+CWJAP=\"SK_WiFiGIGA7EB1\",\"1603004500\"\r\n"
	.size	ATCommand_CWJAP_SET, 42

	.hidden	ATCommand_CIPSTA_GET            @ @ATCommand_CIPSTA_GET
	.type	ATCommand_CIPSTA_GET,%object
	.section	.rodata.ATCommand_CIPSTA_GET,"a",%progbits
	.globl	ATCommand_CIPSTA_GET
ATCommand_CIPSTA_GET:
	.asciz	"AT+CIPSTA=?\r\n"
	.size	ATCommand_CIPSTA_GET, 14

	.hidden	ATCommand_CIPSTA_SET            @ @ATCommand_CIPSTA_SET
	.type	ATCommand_CIPSTA_SET,%object
	.section	.rodata.ATCommand_CIPSTA_SET,"a",%progbits
	.globl	ATCommand_CIPSTA_SET
ATCommand_CIPSTA_SET:
	.asciz	"AT+CIPSTA=\"192.168.35.127\"\r\n"
	.size	ATCommand_CIPSTA_SET, 29

	.hidden	ATCommand_CIPSTATUS             @ @ATCommand_CIPSTATUS
	.type	ATCommand_CIPSTATUS,%object
	.section	.rodata.ATCommand_CIPSTATUS,"a",%progbits
	.globl	ATCommand_CIPSTATUS
ATCommand_CIPSTATUS:
	.asciz	"AT+CIPSTATUS\r\n"
	.size	ATCommand_CIPSTATUS, 15

	.hidden	ATCommand_CIPMUX_GET            @ @ATCommand_CIPMUX_GET
	.type	ATCommand_CIPMUX_GET,%object
	.section	.rodata.ATCommand_CIPMUX_GET,"a",%progbits
	.globl	ATCommand_CIPMUX_GET
ATCommand_CIPMUX_GET:
	.asciz	"AT+CIPMUX?\r\n"
	.size	ATCommand_CIPMUX_GET, 13

	.hidden	ATCommand_CIPMUX_SET0           @ @ATCommand_CIPMUX_SET0
	.type	ATCommand_CIPMUX_SET0,%object
	.section	.rodata.ATCommand_CIPMUX_SET0,"a",%progbits
	.globl	ATCommand_CIPMUX_SET0
ATCommand_CIPMUX_SET0:
	.asciz	"AT+CIPMUX=0\r\n"
	.size	ATCommand_CIPMUX_SET0, 14

	.hidden	ATCommand_CIPMUX_SET1           @ @ATCommand_CIPMUX_SET1
	.type	ATCommand_CIPMUX_SET1,%object
	.section	.rodata.ATCommand_CIPMUX_SET1,"a",%progbits
	.globl	ATCommand_CIPMUX_SET1
ATCommand_CIPMUX_SET1:
	.asciz	"AT+CIPMUX=1\r\n"
	.size	ATCommand_CIPMUX_SET1, 14

	.hidden	ATCommand_CIFSR                 @ @ATCommand_CIFSR
	.type	ATCommand_CIFSR,%object
	.section	.rodata.ATCommand_CIFSR,"a",%progbits
	.globl	ATCommand_CIFSR
ATCommand_CIFSR:
	.asciz	"AT+CIFSR\r\n"
	.size	ATCommand_CIFSR, 11

	.hidden	ATCommand_CIPSTART0             @ @ATCommand_CIPSTART0
	.type	ATCommand_CIPSTART0,%object
	.section	.rodata.ATCommand_CIPSTART0,"a",%progbits
	.globl	ATCommand_CIPSTART0
ATCommand_CIPSTART0:
	.asciz	"AT+CIPSTART=0,\"TCP\",\"192.168.35.212\",80\r\n"
	.size	ATCommand_CIPSTART0, 42

	.hidden	ATCommand_CIPSTART1             @ @ATCommand_CIPSTART1
	.type	ATCommand_CIPSTART1,%object
	.section	.rodata.ATCommand_CIPSTART1,"a",%progbits
	.globl	ATCommand_CIPSTART1
ATCommand_CIPSTART1:
	.asciz	"AT+CIPSTART=1,\"TCP\",\"192.168.35.212\",2351\r\n"
	.size	ATCommand_CIPSTART1, 44

	.hidden	ATCommand_CIPSEND0              @ @ATCommand_CIPSEND0
	.type	ATCommand_CIPSEND0,%object
	.section	.rodata.ATCommand_CIPSEND0,"a",%progbits
	.globl	ATCommand_CIPSEND0
ATCommand_CIPSEND0:
	.asciz	"AT+CIPSEND=0,"
	.size	ATCommand_CIPSEND0, 14

	.hidden	ATCommand_CIPSEND1              @ @ATCommand_CIPSEND1
	.type	ATCommand_CIPSEND1,%object
	.section	.rodata.ATCommand_CIPSEND1,"a",%progbits
	.globl	ATCommand_CIPSEND1
ATCommand_CIPSEND1:
	.asciz	"AT+CIPSEND=1,"
	.size	ATCommand_CIPSEND1, 14

	.hidden	ATCommand_CIPCLOSE              @ @ATCommand_CIPCLOSE
	.type	ATCommand_CIPCLOSE,%object
	.section	.rodata.ATCommand_CIPCLOSE,"a",%progbits
	.globl	ATCommand_CIPCLOSE
ATCommand_CIPCLOSE:
	.asciz	"AT+CIPCLOSE\r\n"
	.size	ATCommand_CIPCLOSE, 14

	.hidden	GET_MSG_HEAD                    @ @GET_MSG_HEAD
	.type	GET_MSG_HEAD,%object
	.section	.rodata.GET_MSG_HEAD,"a",%progbits
	.globl	GET_MSG_HEAD
GET_MSG_HEAD:
	.asciz	"GET /process.php?"
	.size	GET_MSG_HEAD, 18

	.type	.L.str,%object                  @ @.str
	.section	.rodata.str1.1,"aMS",%progbits,1
.L.str:
	.asciz	"pulse="
	.size	.L.str, 7

	.type	.L.str.1,%object                @ @.str.1
.L.str.1:
	.asciz	"pubKey1="
	.size	.L.str.1, 9

	.type	.L.str.2,%object                @ @.str.2
.L.str.2:
	.asciz	"pubKey2="
	.size	.L.str.2, 9

	.type	.L.str.3,%object                @ @.str.3
.L.str.3:
	.asciz	"signatureR="
	.size	.L.str.3, 12

	.type	.L.str.4,%object                @ @.str.4
.L.str.4:
	.asciz	"signatureS="
	.size	.L.str.4, 12

	.hidden	GET_MSG_BODY                    @ @GET_MSG_BODY
	.type	GET_MSG_BODY,%object
	.section	.data.GET_MSG_BODY,"aw",%progbits
	.globl	GET_MSG_BODY
	.p2align	2
GET_MSG_BODY:
	.long	.L.str
	.long	.L.str.1
	.long	.L.str.2
	.long	.L.str.3
	.long	.L.str.4
	.size	GET_MSG_BODY, 20

	.hidden	GET_MSG_AND                     @ @GET_MSG_AND
	.type	GET_MSG_AND,%object
	.section	.rodata.GET_MSG_AND,"a",%progbits
	.globl	GET_MSG_AND
GET_MSG_AND:
	.asciz	"&"
	.size	GET_MSG_AND, 2

	.hidden	GET_MSG_TAIL                    @ @GET_MSG_TAIL
	.type	GET_MSG_TAIL,%object
	.section	.rodata.GET_MSG_TAIL,"a",%progbits
	.globl	GET_MSG_TAIL
GET_MSG_TAIL:
	.asciz	" HTTP/1.1\nHost: 127.0.0.1\nConnection: keep-alive\nAccept: */*\n\n"
	.size	GET_MSG_TAIL, 63

	.type	.L.str.5,%object                @ @.str.5
	.section	.rodata.str1.1,"aMS",%progbits,1
.L.str.5:
	.asciz	"printNetworkData\n"
	.size	.L.str.5, 18

	.type	.L.str.6,%object                @ @.str.6
.L.str.6:
	.asciz	"netLen  : %d\n"
	.size	.L.str.6, 14

	.type	.L.str.7,%object                @ @.str.7
.L.str.7:
	.asciz	"netData : %s\n"
	.size	.L.str.7, 14

	.type	.L.str.8,%object                @ @.str.8
.L.str.8:
	.asciz	"|            WiFi Module Loading  ...         |\n"
	.size	.L.str.8, 49

	.type	.L.str.9,%object                @ @.str.9
.L.str.9:
	.asciz	"|                                             |\n"
	.size	.L.str.9, 49

	.type	.L.str.10,%object               @ @.str.10
.L.str.10:
	.asciz	"|        Current mode : Station               |\n"
	.size	.L.str.10, 49

	.type	.L.str.11,%object               @ @.str.11
.L.str.11:
	.asciz	"|        WiFi SSID :  \"SK_WiFiGIGA7EB1\"       |\n"
	.size	.L.str.11, 49

	.type	.L.str.12,%object               @ @.str.12
.L.str.12:
	.asciz	"|        Set Station IP : 192.168.35.127      |\n"
	.size	.L.str.12, 49

	.type	.L.str.13,%object               @ @.str.13
.L.str.13:
	.asciz	"|  WiFi Multiple Server Connections Enabled   |\n"
	.size	.L.str.13, 49

	.type	.L.str.14,%object               @ @.str.14
.L.str.14:
	.asciz	"|       Server TCP enabled on 80 port         |\n"
	.size	.L.str.14, 49

	.type	.L.str.15,%object               @ @.str.15
.L.str.15:
	.asciz	"|       Server TCP enabled on 2351 port       |\n"
	.size	.L.str.15, 49

	.type	.L.str.16,%object               @ @.str.16
.L.str.16:
	.asciz	"|        WiFi Module ESP8266 is Ready         |\n"
	.size	.L.str.16, 49

	.type	.L.str.17,%object               @ @.str.17
.L.str.17:
	.asciz	"+---------------------------------------------+\n"
	.size	.L.str.17, 49

	.type	.L.str.18,%object               @ @.str.18
.L.str.18:
	.asciz	"%c"
	.size	.L.str.18, 3

	.type	.L.str.19,%object               @ @.str.19
.L.str.19:
	.asciz	"|      NonSecure is running ... Send Data     |\n"
	.size	.L.str.19, 49

	.type	.L.str.20,%object               @ @.str.20
.L.str.20:
	.asciz	"%d"
	.size	.L.str.20, 3

	.type	.L.str.21,%object               @ @.str.21
.L.str.21:
	.asciz	"\nData Sent !\n"
	.size	.L.str.21, 14

	.type	.L.str.22,%object               @ @.str.22
.L.str.22:
	.asciz	"|      NonSecure is running ... Wait Data     |\n"
	.size	.L.str.22, 49

	.type	.L.str.23,%object               @ @.str.23
.L.str.23:
	.asciz	"\n\n"
	.size	.L.str.23, 3

	.type	.L.str.24,%object               @ @.str.24
.L.str.24:
	.asciz	"[%c]"
	.size	.L.str.24, 5

	.type	.L.str.25,%object               @ @.str.25
.L.str.25:
	.asciz	"\nchannel ID : %d\n"
	.size	.L.str.25, 18

	.type	.L.str.26,%object               @ @.str.26
.L.str.26:
	.asciz	"\nlengthData : %d\n"
	.size	.L.str.26, 18

	.type	.L.str.27,%object               @ @.str.27
.L.str.27:
	.asciz	"\ndataR : %s\n"
	.size	.L.str.27, 13

	.type	.L__const.WIFI_Send_EncryptedDigitallySignedData.dsdLen,%object @ @__const.WIFI_Send_EncryptedDigitallySignedData.dsdLen
	.section	.rodata..L__const.WIFI_Send_EncryptedDigitallySignedData.dsdLen,"a",%progbits
	.p2align	2
.L__const.WIFI_Send_EncryptedDigitallySignedData.dsdLen:
	.long	16                              @ 0x10
	.long	24                              @ 0x18
	.long	24                              @ 0x18
	.long	24                              @ 0x18
	.long	24                              @ 0x18
	.size	.L__const.WIFI_Send_EncryptedDigitallySignedData.dsdLen, 20

	.file	9 "C:\\Users\\shw26\\OneDrive\\Desktop\\2021\\2021-1\\\354\272\241\354\212\244\355\206\244\353\224\224\354\236\220\354\235\2702\\Nuvoton\\M2351_BSP_v3.00.004\\M2351Series_BSP_CMSIS_V3.00.004\\MyProject\\PulseMonitoring\\NonSecure" "./WiFi/wifi.h"
	.file	10 "C:\\Users\\shw26\\OneDrive\\Desktop\\2021\\2021-1\\\354\272\241\354\212\244\355\206\244\353\224\224\354\236\220\354\235\2702\\Nuvoton\\M2351_BSP_v3.00.004\\M2351Series_BSP_CMSIS_V3.00.004\\MyProject\\PulseMonitoring\\NonSecure" "../NonSecure\\cssd_lib.h"
	.section	".note.GNU-stack","",%progbits
	.eabi_attribute	30, 6	@ Tag_ABI_optimization_goals
	.ARM_attribute	16, 1	@ Tag_AV_eba