	.text
	.syntax unified
	.eabi_attribute	67, "2.09"	@ Tag_conformance
	.cpu	cortex-m23
	.eabi_attribute	6, 16	@ Tag_CPU_arch
	.eabi_attribute	7, 77	@ Tag_CPU_arch_profile
	.eabi_attribute	8, 0	@ Tag_ARM_ISA_use
	.eabi_attribute	9, 3	@ Tag_THUMB_ISA_use
	.eabi_attribute	34, 0	@ Tag_CPU_unaligned_access
	.eabi_attribute	17, 1	@ Tag_ABI_PCS_GOT_use
	.eabi_attribute	20, 2	@ Tag_ABI_FP_denormal
	.eabi_attribute	21, 0	@ Tag_ABI_FP_exceptions
	.eabi_attribute	23, 1	@ Tag_ABI_FP_number_model
	.eabi_attribute	24, 1	@ Tag_ABI_align_needed
	.eabi_attribute	25, 1	@ Tag_ABI_align_preserved
	.eabi_attribute	38, 1	@ Tag_ABI_FP_16bit_format
	.eabi_attribute	18, 2	@ Tag_ABI_PCS_wchar_t
	.eabi_attribute	26, 1	@ Tag_ABI_enum_size
	.eabi_attribute	14, 0	@ Tag_ABI_PCS_R9_use
	.file	"crypto_aes.c"
	.file	1 "C:\\" "Keil_v5\\ARM\\ARMCLANG\\Bin\\..\\include\\stdint.h"
	.file	2 "C:\\Users\\shw26\\OneDrive\\Desktop\\2021\\2021-1\\\354\272\241\354\212\244\355\206\244\353\224\224\354\236\220\354\235\2702\\Nuvoton\\M2351_BSP_v3.00.004\\M2351Series_BSP_CMSIS_V3.00.004\\MyProject\\I2C_MAX30102" "../I2C_MAX30102/crypto_aes.h"
	.file	3 "C:\\Users\\shw26\\OneDrive\\Desktop\\2021\\2021-1\\\354\272\241\354\212\244\355\206\244\353\224\224\354\236\220\354\235\2702\\Nuvoton\\M2351_BSP_v3.00.004\\M2351Series_BSP_CMSIS_V3.00.004\\MyProject\\I2C_MAX30102" "crypto_aes.c"
	.file	4 "C:\\Users\\shw26\\OneDrive\\Desktop\\2021\\2021-1\\\354\272\241\354\212\244\355\206\244\353\224\224\354\236\220\354\235\2702\\Nuvoton\\M2351_BSP_v3.00.004\\M2351Series_BSP_CMSIS_V3.00.004\\MyProject\\I2C_MAX30102" "../../Library/Device/Nuvoton/M2351/Include\\M2351.h"
	.file	5 "C:\\Users\\shw26\\OneDrive\\Desktop\\2021\\2021-1\\\354\272\241\354\212\244\355\206\244\353\224\224\354\236\220\354\235\2702\\Nuvoton\\M2351_BSP_v3.00.004\\M2351Series_BSP_CMSIS_V3.00.004\\MyProject\\I2C_MAX30102" "../../Library/Device/Nuvoton/M2351/Include/crpt_reg.h"
	.file	6 "C:\\Users\\shw26\\OneDrive\\Desktop\\2021\\2021-1\\\354\272\241\354\212\244\355\206\244\353\224\224\354\236\220\354\235\2702\\Nuvoton\\M2351_BSP_v3.00.004\\M2351Series_BSP_CMSIS_V3.00.004\\MyProject\\I2C_MAX30102" "../../Library/CMSIS/Include\\core_armv8mbl.h"
	.file	7 "C:\\Users\\shw26\\OneDrive\\Desktop\\2021\\2021-1\\\354\272\241\354\212\244\355\206\244\353\224\224\354\236\220\354\235\2702\\Nuvoton\\M2351_BSP_v3.00.004\\M2351Series_BSP_CMSIS_V3.00.004\\MyProject\\I2C_MAX30102" "../../Library/Device/Nuvoton/M2351/Include/fmc_reg.h"
	.section	.text.CRPT_IRQHandler,"ax",%progbits
	.hidden	CRPT_IRQHandler                 @ -- Begin function CRPT_IRQHandler
	.globl	CRPT_IRQHandler
	.p2align	2
	.type	CRPT_IRQHandler,%function
	.code	16                              @ @CRPT_IRQHandler
	.thumb_func
CRPT_IRQHandler:
.Lfunc_begin0:
	.loc	3 20 0                          @ crypto_aes.c:20:0
	.fnstart
	.cfi_sections .debug_frame
	.cfi_startproc
@ %bb.0:
	ldr	r0, __arm_cp.0_0
.Ltmp0:
	.loc	3 21 8 prologue_end             @ crypto_aes.c:21:8
	ldr	r1, [r0]
.Ltmp1:
	.loc	3 21 8 is_stmt 0                @ crypto_aes.c:21:8
	lsls	r1, r1, #30
	beq	.LBB0_2
@ %bb.1:
.Ltmp2:
	.loc	3 23 20 is_stmt 1               @ crypto_aes.c:23:20
	ldr	r1, __arm_cp.0_1
	movs	r2, #1
	str	r2, [r1]
	movs	r1, #3
	.loc	3 24 9                          @ crypto_aes.c:24:9
	str	r1, [r0]
.Ltmp3:
.LBB0_2:
	.loc	3 26 1                          @ crypto_aes.c:26:1
	bx	lr
.Ltmp4:
	.p2align	2
@ %bb.3:
	.loc	3 0 1 is_stmt 0                 @ crypto_aes.c:0:1
__arm_cp.0_0:
	.long	1073946628                      @ 0x40032004
.Lcpi_end0:
	.size	__arm_cp.0_0, .Lcpi_end0-__arm_cp.0_0
__arm_cp.0_1:
	.long	g_AES_done
.Lcpi_end1:
	.size	__arm_cp.0_1, .Lcpi_end1-__arm_cp.0_1
.Lfunc_end0:
	.size	CRPT_IRQHandler, .Lfunc_end0-CRPT_IRQHandler
	.cfi_endproc
	.cantunwind
	.fnend
                                        @ -- End function
	.section	.text.Nuvoton_M2351_crypto_init,"ax",%progbits
	.hidden	Nuvoton_M2351_crypto_init       @ -- Begin function Nuvoton_M2351_crypto_init
	.globl	Nuvoton_M2351_crypto_init
	.p2align	2
	.type	Nuvoton_M2351_crypto_init,%function
	.code	16                              @ @Nuvoton_M2351_crypto_init
	.thumb_func
Nuvoton_M2351_crypto_init:
.Lfunc_begin1:
	.loc	3 28 0 is_stmt 1                @ crypto_aes.c:28:0
	.fnstart
	.cfi_startproc
@ %bb.0:
	@DEBUG_VALUE: Nuvoton_M2351_crypto_init:channel <- $r0
	@DEBUG_VALUE: Nuvoton_M2351_crypto_init:modeAES <- $r1
	.save	{r4, r5, r7, lr}
	push	{r4, r5, r7, lr}
	.cfi_def_cfa_offset 16
	.cfi_offset lr, -4
	.cfi_offset r7, -8
	.cfi_offset r5, -12
	.cfi_offset r4, -16
	.pad	#8
	sub	sp, #8
	.cfi_def_cfa_offset 24
	mov	r4, r1
	mov	r5, r0
.Ltmp5:
	@DEBUG_VALUE: Nuvoton_M2351_crypto_init:modeAES <- $r4
	@DEBUG_VALUE: Nuvoton_M2351_crypto_init:channel <- $r5
	.loc	3 30 24 prologue_end            @ crypto_aes.c:30:24
	cmp	r1, #2
	blo	.LBB1_2
.Ltmp6:
@ %bb.1:
	@DEBUG_VALUE: Nuvoton_M2351_crypto_init:channel <- $r5
	@DEBUG_VALUE: Nuvoton_M2351_crypto_init:modeAES <- $r4
	.loc	3 30 47 is_stmt 0               @ crypto_aes.c:30:47
	adr	r0, .LCPI1_0
	bl	puts
.Ltmp7:
.LBB1_2:
	@DEBUG_VALUE: Nuvoton_M2351_crypto_init:channel <- $r5
	@DEBUG_VALUE: Nuvoton_M2351_crypto_init:modeAES <- $r4
	.loc	3 32 5 is_stmt 1                @ crypto_aes.c:32:5
	bl	__NVIC_EnableIRQ
	ldr	r0, __arm_cp.1_1
	.loc	3 33 5                          @ crypto_aes.c:33:5
	ldr	r1, [r0]
	movs	r2, #3
	orrs	r1, r2
	str	r1, [r0]
	movs	r3, #0
	.loc	3 35 2                          @ crypto_aes.c:35:2
	str	r3, [sp]
	str	r2, [sp, #4]
	mov	r1, r5
	mov	r2, r4
	bl	AES_Open
	.loc	3 37 1                          @ crypto_aes.c:37:1
	add	sp, #8
	pop	{r4, r5, r7, pc}
.Ltmp8:
	.p2align	2
@ %bb.3:
	.loc	3 0 1 is_stmt 0                 @ crypto_aes.c:0:1
.LCPI1_0:
.Lstr:
	.asciz	"Error mode , mode must be ENCRYPT or DECRYPT value\000"
__arm_cp.1_1:
	.long	1073946624                      @ 0x40032000
.Lcpi_end2:
	.size	__arm_cp.1_1, .Lcpi_end2-__arm_cp.1_1
.Lfunc_end1:
	.size	Nuvoton_M2351_crypto_init, .Lfunc_end1-Nuvoton_M2351_crypto_init
	.cfi_endproc
	.cantunwind
	.fnend
                                        @ -- End function
	.section	.text.__NVIC_EnableIRQ,"ax",%progbits
	.p2align	2                               @ -- Begin function __NVIC_EnableIRQ
	.type	__NVIC_EnableIRQ,%function
	.code	16                              @ @__NVIC_EnableIRQ
	.thumb_func
__NVIC_EnableIRQ:
.Lfunc_begin2:
	.loc	6 1276 0 is_stmt 1              @ ../../Library/CMSIS/Include\core_armv8mbl.h:1276:0
	.fnstart
	.cfi_startproc
@ %bb.0:
	ldr	r0, __arm_cp.2_0
	movs	r1, #128
	@DEBUG_VALUE: __NVIC_EnableIRQ:IRQn <- 71
.Ltmp9:
	.loc	6 1279 52 prologue_end          @ ../../Library/CMSIS/Include\core_armv8mbl.h:1279:52
	str	r1, [r0]
.Ltmp10:
	.loc	6 1281 1                        @ ../../Library/CMSIS/Include\core_armv8mbl.h:1281:1
	bx	lr
.Ltmp11:
	.p2align	2
@ %bb.1:
	.loc	6 0 1 is_stmt 0                 @ ../../Library/CMSIS/Include\core_armv8mbl.h:0:1
__arm_cp.2_0:
	.long	3758153992                      @ 0xe000e108
.Lcpi_end3:
	.size	__arm_cp.2_0, .Lcpi_end3-__arm_cp.2_0
.Lfunc_end2:
	.size	__NVIC_EnableIRQ, .Lfunc_end2-__NVIC_EnableIRQ
	.cfi_endproc
	.cantunwind
	.fnend
                                        @ -- End function
	.section	.text.Nuvoton_M2351_crypto_useMasterKey,"ax",%progbits
	.hidden	Nuvoton_M2351_crypto_useMasterKey @ -- Begin function Nuvoton_M2351_crypto_useMasterKey
	.globl	Nuvoton_M2351_crypto_useMasterKey
	.p2align	2
	.type	Nuvoton_M2351_crypto_useMasterKey,%function
	.code	16                              @ @Nuvoton_M2351_crypto_useMasterKey
	.thumb_func
Nuvoton_M2351_crypto_useMasterKey:
.Lfunc_begin3:
	.loc	3 39 0 is_stmt 1                @ crypto_aes.c:39:0
	.fnstart
	.cfi_startproc
@ %bb.0:
	.save	{r4, r5, r7, lr}
	push	{r4, r5, r7, lr}
	.cfi_def_cfa_offset 16
	.cfi_offset lr, -4
	.cfi_offset r7, -8
	.cfi_offset r5, -12
	.cfi_offset r4, -16
.Ltmp12:
	@DEBUG_VALUE: Nuvoton_M2351_crypto_useMasterKey:u32Channel <- 1
	@DEBUG_VALUE: Nuvoton_M2351_crypto_useMasterKey:key_reg_addr <- 1073946956
	.loc	3 49 5 prologue_end             @ crypto_aes.c:49:5
	bl	FMC_Open
	movs	r4, #0
	.loc	3 51 2                          @ crypto_aes.c:51:2
	mov	r0, r4
	bl	FMC_ReadUID
	ldr	r5, __arm_cp.3_0
	str	r0, [r5]
	movs	r0, #1
	.loc	3 52 2                          @ crypto_aes.c:52:2
	bl	FMC_ReadUID
	str	r0, [r5, #4]
	movs	r0, #2
	.loc	3 53 2                          @ crypto_aes.c:53:2
	bl	FMC_ReadUID
	str	r0, [r5, #8]
	.loc	3 54 2                          @ crypto_aes.c:54:2
	mov	r0, r4
	bl	FMC_ReadUID
	str	r0, [r5, #12]
	.loc	3 59 5                          @ crypto_aes.c:59:5
	bl	FMC_Close
.Ltmp13:
	@DEBUG_VALUE: Nuvoton_M2351_crypto_useMasterKey:iv_reg_addr <- 1073946988
	.loc	3 70 2                          @ crypto_aes.c:70:2
	str	r4, [r5, #32]
	.loc	3 71 2                          @ crypto_aes.c:71:2
	str	r4, [r5, #36]
	.loc	3 72 2                          @ crypto_aes.c:72:2
	str	r4, [r5, #40]
	.loc	3 73 2                          @ crypto_aes.c:73:2
	str	r4, [r5, #44]
.Ltmp14:
	@DEBUG_VALUE: Nuvoton_M2351_crypto_useMasterKey:crpt <- undef
	.loc	3 75 1                          @ crypto_aes.c:75:1
	pop	{r4, r5, r7, pc}
.Ltmp15:
	.p2align	2
@ %bb.1:
	.loc	3 0 1 is_stmt 0                 @ crypto_aes.c:0:1
__arm_cp.3_0:
	.long	1073946956                      @ 0x4003214c
.Lcpi_end4:
	.size	__arm_cp.3_0, .Lcpi_end4-__arm_cp.3_0
.Lfunc_end3:
	.size	Nuvoton_M2351_crypto_useMasterKey, .Lfunc_end3-Nuvoton_M2351_crypto_useMasterKey
	.cfi_endproc
	.cantunwind
	.fnend
                                        @ -- End function
	.section	.text.FMC_ReadUID,"ax",%progbits
	.p2align	2                               @ -- Begin function FMC_ReadUID
	.type	FMC_ReadUID,%function
	.code	16                              @ @FMC_ReadUID
	.thumb_func
FMC_ReadUID:
.Lfunc_begin4:
	.file	8 "C:\\Users\\shw26\\OneDrive\\Desktop\\2021\\2021-1\\\354\272\241\354\212\244\355\206\244\353\224\224\354\236\220\354\235\2702\\Nuvoton\\M2351_BSP_v3.00.004\\M2351Series_BSP_CMSIS_V3.00.004\\MyProject\\I2C_MAX30102" "../../Library/StdDriver/inc\\fmc.h"
	.loc	8 396 0 is_stmt 1               @ ../../Library/StdDriver/inc\fmc.h:396:0
	.fnstart
	.cfi_startproc
@ %bb.0:
	@DEBUG_VALUE: FMC_ReadUID:u8Index <- $r0
	ldr	r1, __arm_cp.4_0
	movs	r2, #4
	@DEBUG_VALUE: FMC_ReadUID:u8Index <- $r0
.Ltmp16:
	.loc	8 397 17 prologue_end           @ ../../Library/StdDriver/inc\fmc.h:397:17
	str	r2, [r1, #4]
	.loc	8 398 18                        @ ../../Library/StdDriver/inc\fmc.h:398:18
	subs	r2, r1, #4
	.loc	8 398 39 is_stmt 0              @ ../../Library/StdDriver/inc\fmc.h:398:39
	lsls	r0, r0, #2
.Ltmp17:
	@DEBUG_VALUE: FMC_ReadUID:u8Index <- [DW_OP_LLVM_entry_value 1] $r0
	.loc	8 398 18                        @ ../../Library/StdDriver/inc\fmc.h:398:18
	str	r0, [r2]
	movs	r0, #0
	.loc	8 399 17 is_stmt 1              @ ../../Library/StdDriver/inc\fmc.h:399:17
	str	r0, [r1]
	movs	r0, #1
	.loc	8 400 17                        @ ../../Library/StdDriver/inc\fmc.h:400:17
	str	r0, [r1, #8]
.Ltmp18:
.LBB4_1:                                @ =>This Inner Loop Header: Depth=1
	@DEBUG_VALUE: FMC_ReadUID:u8Index <- [DW_OP_LLVM_entry_value 1] $r0
	.loc	8 404 16                        @ ../../Library/StdDriver/inc\fmc.h:404:16
	ldr	r0, [r1, #8]
	.loc	8 404 5 is_stmt 0               @ ../../Library/StdDriver/inc\fmc.h:404:5
	cmp	r0, #0
	bne	.LBB4_1
.Ltmp19:
@ %bb.2:
	@DEBUG_VALUE: FMC_ReadUID:u8Index <- [DW_OP_LLVM_entry_value 1] $r0
	.loc	8 406 17 is_stmt 1              @ ../../Library/StdDriver/inc\fmc.h:406:17
	ldr	r0, [r1]
	.loc	8 406 5 is_stmt 0               @ ../../Library/StdDriver/inc\fmc.h:406:5
	bx	lr
.Ltmp20:
	.p2align	2
@ %bb.3:
	.loc	8 0 5                           @ ../../Library/StdDriver/inc\fmc.h:0:5
__arm_cp.4_0:
	.long	1073790984                      @ 0x4000c008
.Lcpi_end5:
	.size	__arm_cp.4_0, .Lcpi_end5-__arm_cp.4_0
.Lfunc_end4:
	.size	FMC_ReadUID, .Lfunc_end4-FMC_ReadUID
	.cfi_endproc
	.cantunwind
	.fnend
                                        @ -- End function
	.section	.text.Nuvoton_M2351_crypto_useSessionKey,"ax",%progbits
	.hidden	Nuvoton_M2351_crypto_useSessionKey @ -- Begin function Nuvoton_M2351_crypto_useSessionKey
	.globl	Nuvoton_M2351_crypto_useSessionKey
	.p2align	2
	.type	Nuvoton_M2351_crypto_useSessionKey,%function
	.code	16                              @ @Nuvoton_M2351_crypto_useSessionKey
	.thumb_func
Nuvoton_M2351_crypto_useSessionKey:
.Lfunc_begin5:
	.loc	3 77 0 is_stmt 1                @ crypto_aes.c:77:0
	.fnstart
	.cfi_startproc
@ %bb.0:
	@DEBUG_VALUE: Nuvoton_M2351_crypto_useSessionKey:channel <- $r0
	.save	{r4, r5, r6, lr}
	push	{r4, r5, r6, lr}
	.cfi_def_cfa_offset 16
	.cfi_offset lr, -4
	.cfi_offset r6, -8
	.cfi_offset r5, -12
	.cfi_offset r4, -16
	.pad	#48
	sub	sp, #48
	.cfi_def_cfa_offset 64
	mov	r4, r0
	movs	r5, #0
.Ltmp21:
	@DEBUG_VALUE: Nuvoton_M2351_crypto_useSessionKey:channel <- $r4
	.loc	3 79 10 prologue_end            @ crypto_aes.c:79:10
	str	r5, [sp, #44]
	str	r5, [sp, #40]
	str	r5, [sp, #36]
	str	r5, [sp, #32]
	movs	r6, #1
	.loc	3 84 2                          @ crypto_aes.c:84:2
	mov	r0, r6
	mov	r1, r5
	bl	Nuvoton_M2351_crypto_init
	.loc	3 85 5                          @ crypto_aes.c:85:5
	bl	Nuvoton_M2351_crypto_useMasterKey
.Ltmp22:
	.loc	3 86 12                         @ crypto_aes.c:86:12
	adr	r0, .LCPI5_0
	bl	puts
.Ltmp23:
	.loc	3 87 5                          @ crypto_aes.c:87:5
	ldr	r1, __arm_cp.5_1
	add	r2, sp, #32
	mov	r0, r6
	bl	Nuvoton_M2351_decrypt_data
	ldr	r0, __arm_cp.5_2
	@DEBUG_VALUE: z <- 0
.Ltmp24:
.LBB5_1:                                @ =>This Inner Loop Header: Depth=1
	@DEBUG_VALUE: Nuvoton_M2351_crypto_useSessionKey:channel <- $r4
	@DEBUG_VALUE: z <- undef
	.loc	3 0 5 is_stmt 0                 @ crypto_aes.c:0:5
	add	r1, sp, #32
.Ltmp25:
	.loc	3 96 19 is_stmt 1               @ crypto_aes.c:96:19
	ldrb	r2, [r1, r5]
	.loc	3 96 39 is_stmt 0               @ crypto_aes.c:96:39
	lsls	r2, r2, #24
	.loc	3 96 19                         @ crypto_aes.c:96:19
	adds	r1, r1, r5
	.loc	3 96 49                         @ crypto_aes.c:96:49
	ldrb	r3, [r1, #1]
	.loc	3 96 69                         @ crypto_aes.c:96:69
	lsls	r3, r3, #16
	.loc	3 96 46                         @ crypto_aes.c:96:46
	adds	r2, r3, r2
	.loc	3 96 79                         @ crypto_aes.c:96:79
	ldrb	r3, [r1, #2]
	.loc	3 96 99                         @ crypto_aes.c:96:99
	lsls	r3, r3, #8
	.loc	3 96 76                         @ crypto_aes.c:96:76
	adds	r2, r2, r3
	.loc	3 96 107                        @ crypto_aes.c:96:107
	ldrb	r1, [r1, #3]
	.loc	3 96 105                        @ crypto_aes.c:96:105
	adds	r1, r2, r1
	add	r2, sp, #16
	.loc	3 96 16                         @ crypto_aes.c:96:16
	str	r1, [r2, r5]
	.loc	3 97 19 is_stmt 1               @ crypto_aes.c:97:19
	ldrb	r1, [r0, r5]
	.loc	3 97 38 is_stmt 0               @ crypto_aes.c:97:38
	lsls	r1, r1, #24
	.loc	3 97 19                         @ crypto_aes.c:97:19
	adds	r2, r0, r5
	.loc	3 97 48                         @ crypto_aes.c:97:48
	ldrb	r3, [r2, #1]
	.loc	3 97 67                         @ crypto_aes.c:97:67
	lsls	r3, r3, #16
	.loc	3 97 45                         @ crypto_aes.c:97:45
	adds	r1, r3, r1
	.loc	3 97 77                         @ crypto_aes.c:97:77
	ldrb	r3, [r2, #2]
	.loc	3 97 96                         @ crypto_aes.c:97:96
	lsls	r3, r3, #8
	.loc	3 97 74                         @ crypto_aes.c:97:74
	adds	r1, r1, r3
	.loc	3 97 104                        @ crypto_aes.c:97:104
	ldrb	r2, [r2, #3]
	.loc	3 97 102                        @ crypto_aes.c:97:102
	adds	r1, r1, r2
	mov	r2, sp
	.loc	3 97 16                         @ crypto_aes.c:97:16
	str	r1, [r2, r5]
.Ltmp26:
	@DEBUG_VALUE: z <- [DW_OP_plus_uconst 1, DW_OP_stack_value] undef
	.loc	3 95 24 is_stmt 1               @ crypto_aes.c:95:24
	adds	r5, r5, #4
.Ltmp27:
	.loc	3 95 2 is_stmt 0                @ crypto_aes.c:95:2
	cmp	r5, #16
	bne	.LBB5_1
.Ltmp28:
@ %bb.2:
	@DEBUG_VALUE: Nuvoton_M2351_crypto_useSessionKey:channel <- $r4
	.loc	3 0 2                           @ crypto_aes.c:0:2
	ldr	r6, __arm_cp.5_3
	add	r2, sp, #16
	movs	r5, #0
	.loc	3 99 2 is_stmt 1                @ crypto_aes.c:99:2
	mov	r0, r6
	mov	r1, r4
	mov	r3, r5
	bl	AES_SetKey
	mov	r2, sp
	.loc	3 100 2                         @ crypto_aes.c:100:2
	mov	r0, r6
	mov	r1, r4
	bl	AES_SetInitVect
.Ltmp29:
	@DEBUG_VALUE: z <- 0
	.loc	3 103 52                        @ crypto_aes.c:103:52
	str	r5, [sp, #44]
	str	r5, [sp, #40]
	str	r5, [sp, #36]
.Ltmp30:
	@DEBUG_VALUE: z <- undef
	.loc	3 106 16                        @ crypto_aes.c:106:16
	str	r5, [sp, #16]
	str	r5, [sp, #20]
	str	r5, [sp, #24]
.Ltmp31:
	@DEBUG_VALUE: z <- undef
	.loc	3 110 1                         @ crypto_aes.c:110:1
	add	sp, #48
	pop	{r4, r5, r6, pc}
.Ltmp32:
	.p2align	2
@ %bb.3:
	.loc	3 0 1 is_stmt 0                 @ crypto_aes.c:0:1
.LCPI5_0:
.Lstr.2:
	.asciz	"|  Secure is running ... decrypt sessionKey   |"
__arm_cp.5_1:
	.long	cipheredSessionKey
.Lcpi_end6:
	.size	__arm_cp.5_1, .Lcpi_end6-__arm_cp.5_1
__arm_cp.5_2:
	.long	sessionIv
.Lcpi_end7:
	.size	__arm_cp.5_2, .Lcpi_end7-__arm_cp.5_2
__arm_cp.5_3:
	.long	1073946624                      @ 0x40032000
.Lcpi_end8:
	.size	__arm_cp.5_3, .Lcpi_end8-__arm_cp.5_3
.Lfunc_end5:
	.size	Nuvoton_M2351_crypto_useSessionKey, .Lfunc_end5-Nuvoton_M2351_crypto_useSessionKey
	.cfi_endproc
	.cantunwind
	.fnend
                                        @ -- End function
	.section	.text.Nuvoton_M2351_decrypt_data,"ax",%progbits
	.hidden	Nuvoton_M2351_decrypt_data      @ -- Begin function Nuvoton_M2351_decrypt_data
	.globl	Nuvoton_M2351_decrypt_data
	.p2align	2
	.type	Nuvoton_M2351_decrypt_data,%function
	.code	16                              @ @Nuvoton_M2351_decrypt_data
	.thumb_func
Nuvoton_M2351_decrypt_data:
.Lfunc_begin6:
	.loc	3 142 0 is_stmt 1               @ crypto_aes.c:142:0
	.fnstart
	.cfi_startproc
@ %bb.0:
	@DEBUG_VALUE: Nuvoton_M2351_decrypt_data:channel <- $r0
	@DEBUG_VALUE: Nuvoton_M2351_decrypt_data:InputData <- $r1
	@DEBUG_VALUE: Nuvoton_M2351_decrypt_data:OutputData <- $r2
	.save	{r4, r5, r6, lr}
	push	{r4, r5, r6, lr}
	.cfi_def_cfa_offset 16
	.cfi_offset lr, -4
	.cfi_offset r6, -8
	.cfi_offset r5, -12
	.cfi_offset r4, -16
	.pad	#8
	sub	sp, #8
	.cfi_def_cfa_offset 24
	mov	r3, r2
	mov	r2, r1
.Ltmp33:
	@DEBUG_VALUE: Nuvoton_M2351_decrypt_data:OutputData <- [DW_OP_LLVM_entry_value 1] $r2
	mov	r4, r0
.Ltmp34:
	@DEBUG_VALUE: Nuvoton_M2351_decrypt_data:OutputData <- $r3
	@DEBUG_VALUE: Nuvoton_M2351_decrypt_data:InputData <- $r2
	@DEBUG_VALUE: Nuvoton_M2351_decrypt_data:channel <- $r4
	movs	r0, #16
.Ltmp35:
	.loc	3 150 5 prologue_end            @ crypto_aes.c:150:5
	str	r0, [sp]
	ldr	r5, __arm_cp.6_0
	mov	r0, r5
	mov	r1, r4
	@DEBUG_VALUE: Nuvoton_M2351_decrypt_data:OutputData <- $r3
	@DEBUG_VALUE: Nuvoton_M2351_decrypt_data:InputData <- $r2
	bl	AES_SetDMATransfer
.Ltmp36:
	.loc	3 159 16                        @ crypto_aes.c:159:16
	ldr	r6, __arm_cp.6_1
	movs	r0, #0
	str	r0, [r6]
	movs	r2, #5
	.loc	3 161 5                         @ crypto_aes.c:161:5
	mov	r0, r5
	mov	r1, r4
	bl	AES_Start
.Ltmp37:
.LBB6_1:                                @ =>This Inner Loop Header: Depth=1
	@DEBUG_VALUE: Nuvoton_M2351_decrypt_data:channel <- $r4
	.loc	3 163 12                        @ crypto_aes.c:163:12
	ldr	r0, [r6]
	.loc	3 163 5 is_stmt 0               @ crypto_aes.c:163:5
	cmp	r0, #0
	beq	.LBB6_1
.Ltmp38:
@ %bb.2:
	@DEBUG_VALUE: Nuvoton_M2351_decrypt_data:channel <- $r4
	.loc	3 167 1 is_stmt 1               @ crypto_aes.c:167:1
	add	sp, #8
	pop	{r4, r5, r6, pc}
.Ltmp39:
	.p2align	2
@ %bb.3:
	.loc	3 0 1 is_stmt 0                 @ crypto_aes.c:0:1
__arm_cp.6_0:
	.long	1073946624                      @ 0x40032000
.Lcpi_end9:
	.size	__arm_cp.6_0, .Lcpi_end9-__arm_cp.6_0
__arm_cp.6_1:
	.long	g_AES_done
.Lcpi_end10:
	.size	__arm_cp.6_1, .Lcpi_end10-__arm_cp.6_1
.Lfunc_end6:
	.size	Nuvoton_M2351_decrypt_data, .Lfunc_end6-Nuvoton_M2351_decrypt_data
	.cfi_endproc
	.cantunwind
	.fnend
                                        @ -- End function
	.section	.text.Nuvoton_M2351_encrypt_data,"ax",%progbits
	.hidden	Nuvoton_M2351_encrypt_data      @ -- Begin function Nuvoton_M2351_encrypt_data
	.globl	Nuvoton_M2351_encrypt_data
	.p2align	2
	.type	Nuvoton_M2351_encrypt_data,%function
	.code	16                              @ @Nuvoton_M2351_encrypt_data
	.thumb_func
Nuvoton_M2351_encrypt_data:
.Lfunc_begin7:
	.loc	3 113 0 is_stmt 1               @ crypto_aes.c:113:0
	.fnstart
	.cfi_startproc
@ %bb.0:
	@DEBUG_VALUE: Nuvoton_M2351_encrypt_data:channel <- $r0
	@DEBUG_VALUE: Nuvoton_M2351_encrypt_data:InputData <- $r1
	@DEBUG_VALUE: Nuvoton_M2351_encrypt_data:OutputData <- $r2
	.save	{r4, r5, r6, lr}
	push	{r4, r5, r6, lr}
	.cfi_def_cfa_offset 16
	.cfi_offset lr, -4
	.cfi_offset r6, -8
	.cfi_offset r5, -12
	.cfi_offset r4, -16
	.pad	#8
	sub	sp, #8
	.cfi_def_cfa_offset 24
	mov	r3, r2
	mov	r2, r1
.Ltmp40:
	@DEBUG_VALUE: Nuvoton_M2351_encrypt_data:OutputData <- [DW_OP_LLVM_entry_value 1] $r2
	mov	r4, r0
.Ltmp41:
	@DEBUG_VALUE: Nuvoton_M2351_encrypt_data:OutputData <- $r3
	@DEBUG_VALUE: Nuvoton_M2351_encrypt_data:InputData <- $r2
	@DEBUG_VALUE: Nuvoton_M2351_encrypt_data:channel <- $r4
	movs	r0, #16
.Ltmp42:
	.loc	3 120 2 prologue_end            @ crypto_aes.c:120:2
	str	r0, [sp]
	ldr	r5, __arm_cp.7_0
	mov	r0, r5
	mov	r1, r4
	@DEBUG_VALUE: Nuvoton_M2351_encrypt_data:OutputData <- $r3
	@DEBUG_VALUE: Nuvoton_M2351_encrypt_data:InputData <- $r2
	bl	AES_SetDMATransfer
.Ltmp43:
	.loc	3 130 13                        @ crypto_aes.c:130:13
	ldr	r6, __arm_cp.7_1
	movs	r0, #0
	str	r0, [r6]
	movs	r2, #5
	.loc	3 132 2                         @ crypto_aes.c:132:2
	mov	r0, r5
	mov	r1, r4
	bl	AES_Start
.Ltmp44:
.LBB7_1:                                @ =>This Inner Loop Header: Depth=1
	@DEBUG_VALUE: Nuvoton_M2351_encrypt_data:channel <- $r4
	.loc	3 135 9                         @ crypto_aes.c:135:9
	ldr	r0, [r6]
	.loc	3 135 2 is_stmt 0               @ crypto_aes.c:135:2
	cmp	r0, #0
	beq	.LBB7_1
.Ltmp45:
@ %bb.2:
	@DEBUG_VALUE: Nuvoton_M2351_encrypt_data:channel <- $r4
	.loc	3 139 1 is_stmt 1               @ crypto_aes.c:139:1
	add	sp, #8
	pop	{r4, r5, r6, pc}
.Ltmp46:
	.p2align	2
@ %bb.3:
	.loc	3 0 1 is_stmt 0                 @ crypto_aes.c:0:1
__arm_cp.7_0:
	.long	1073946624                      @ 0x40032000
.Lcpi_end11:
	.size	__arm_cp.7_0, .Lcpi_end11-__arm_cp.7_0
__arm_cp.7_1:
	.long	g_AES_done
.Lcpi_end12:
	.size	__arm_cp.7_1, .Lcpi_end12-__arm_cp.7_1
.Lfunc_end7:
	.size	Nuvoton_M2351_encrypt_data, .Lfunc_end7-Nuvoton_M2351_encrypt_data
	.cfi_endproc
	.cantunwind
	.fnend
                                        @ -- End function
	.type	g_AES_done,%object              @ @g_AES_done
	.section	.bss.g_AES_done,"aw",%nobits
	.p2align	2
g_AES_done:
	.long	0                               @ 0x0
	.size	g_AES_done, 4

	.hidden	cipheredSessionKey              @ @cipheredSessionKey
	.type	cipheredSessionKey,%object
	.section	.bss.cipheredSessionKey,"aw",%nobits
	.globl	cipheredSessionKey
cipheredSessionKey:
	.zero	16
	.size	cipheredSessionKey, 16

	.hidden	sessionIv                       @ @sessionIv
	.type	sessionIv,%object
	.section	.bss.sessionIv,"aw",%nobits
	.globl	sessionIv
sessionIv:
	.zero	16
	.size	sessionIv, 16

	.section	".note.GNU-stack","",%progbits
	.eabi_attribute	30, 1	@ Tag_ABI_optimization_goals
	.ARM_attribute	16, 1	@ Tag_AV_eba