	.text
	.syntax unified
	.eabi_attribute	67, "2.09"	@ Tag_conformance
	.cpu	cortex-m23
	.eabi_attribute	6, 16	@ Tag_CPU_arch
	.eabi_attribute	7, 77	@ Tag_CPU_arch_profile
	.eabi_attribute	8, 0	@ Tag_ARM_ISA_use
	.eabi_attribute	9, 3	@ Tag_THUMB_ISA_use
	.eabi_attribute	34, 0	@ Tag_CPU_unaligned_access
	.eabi_attribute	17, 1	@ Tag_ABI_PCS_GOT_use
	.eabi_attribute	20, 2	@ Tag_ABI_FP_denormal
	.eabi_attribute	21, 0	@ Tag_ABI_FP_exceptions
	.eabi_attribute	23, 1	@ Tag_ABI_FP_number_model
	.eabi_attribute	24, 1	@ Tag_ABI_align_needed
	.eabi_attribute	25, 1	@ Tag_ABI_align_preserved
	.eabi_attribute	38, 1	@ Tag_ABI_FP_16bit_format
	.eabi_attribute	18, 2	@ Tag_ABI_PCS_wchar_t
	.eabi_attribute	26, 1	@ Tag_ABI_enum_size
	.eabi_attribute	14, 0	@ Tag_ABI_PCS_R9_use
	.file	"i2c_max30102.c"
	.file	1 "C:\\" "Keil_v5\\ARM\\ARMCLANG\\Bin\\..\\include\\stdint.h"
	.file	2 "C:\\Users\\shw26\\OneDrive\\Desktop\\2021\\2021-1\\\354\272\241\354\212\244\355\206\244\353\224\224\354\236\220\354\235\2702\\Nuvoton\\M2351_BSP_v3.00.004\\M2351Series_BSP_CMSIS_V3.00.004\\MyProject\\I2C_MAX30102" "i2c_max30102.c"
	.file	3 "C:\\Users\\shw26\\OneDrive\\Desktop\\2021\\2021-1\\\354\272\241\354\212\244\355\206\244\353\224\224\354\236\220\354\235\2702\\Nuvoton\\M2351_BSP_v3.00.004\\M2351Series_BSP_CMSIS_V3.00.004\\MyProject\\I2C_MAX30102" "../../Library/Device/Nuvoton/M2351/Include/i2c_reg.h"
	.section	.text.Get_Data_From_MAX30102,"ax",%progbits
	.hidden	Get_Data_From_MAX30102          @ -- Begin function Get_Data_From_MAX30102
	.globl	Get_Data_From_MAX30102
	.p2align	2
	.type	Get_Data_From_MAX30102,%function
	.code	16                              @ @Get_Data_From_MAX30102
	.thumb_func
Get_Data_From_MAX30102:
.Lfunc_begin0:
	.loc	2 25 0                          @ i2c_max30102.c:25:0
	.fnstart
	.cfi_sections .debug_frame
	.cfi_startproc
@ %bb.0:
	.save	{r4, lr}
	push	{r4, lr}
	.cfi_def_cfa_offset 8
	.cfi_offset lr, -4
	.cfi_offset r4, -8
	.pad	#8
	sub	sp, #8
	.cfi_def_cfa_offset 16
.Ltmp0:
	@DEBUG_VALUE: Get_Data_From_MAX30102:i <- undef
	.loc	2 34 4 prologue_end             @ i2c_max30102.c:34:4
	adr	r0, .LCPI0_0
	bl	puts
	movs	r0, #3
	.loc	2 35 4                          @ i2c_max30102.c:35:4
	str	r0, [sp]
	ldr	r0, __arm_cp.0_1
	movs	r1, #87
	movs	r2, #7
	ldr	r4, __arm_cp.0_2
	mov	r3, r4
	bl	I2C_ReadMultiBytesOneReg
	.loc	2 36 14                         @ i2c_max30102.c:36:14
	ldrb	r0, [r4]
	.loc	2 36 28 is_stmt 0               @ i2c_max30102.c:36:28
	lsls	r0, r0, #16
	.loc	2 36 35                         @ i2c_max30102.c:36:35
	ldrb	r1, [r4, #1]
	.loc	2 36 49                         @ i2c_max30102.c:36:49
	lsls	r1, r1, #8
	.loc	2 36 33                         @ i2c_max30102.c:36:33
	adds	r0, r1, r0
	.loc	2 36 54                         @ i2c_max30102.c:36:54
	ldrb	r1, [r4, #2]
	.loc	2 36 53                         @ i2c_max30102.c:36:53
	adds	r0, r0, r1
	.loc	2 36 11                         @ i2c_max30102.c:36:11
	ldr	r2, __arm_cp.0_3
	str	r0, [r2]
	.loc	2 39 38 is_stmt 1               @ i2c_max30102.c:39:38
	ldr	r1, [r2]
	.loc	2 39 46 is_stmt 0               @ i2c_max30102.c:39:46
	ldr	r2, [r2]
	.loc	2 39 4                          @ i2c_max30102.c:39:4
	adr	r0, .LCPI0_4
	bl	__2printf
	.loc	2 42 4 is_stmt 1                @ i2c_max30102.c:42:4
	adr	r0, .LCPI0_0
	bl	puts
.Ltmp1:
	.loc	2 47 1                          @ i2c_max30102.c:47:1
	add	sp, #8
	pop	{r4, pc}
.Ltmp2:
	.p2align	2
@ %bb.1:
	.loc	2 0 1 is_stmt 0                 @ i2c_max30102.c:0:1
.LCPI0_0:
.Lstr.9:
.Lstr:
	.asciz	"**\000"
__arm_cp.0_1:
	.long	1074266112                      @ 0x40080000
.Lcpi_end0:
	.size	__arm_cp.0_1, .Lcpi_end0-__arm_cp.0_1
__arm_cp.0_2:
	.long	au8RDataBuf
.Lcpi_end1:
	.size	__arm_cp.0_2, .Lcpi_end1-__arm_cp.0_2
__arm_cp.0_3:
	.long	hr_val
.Lcpi_end2:
	.size	__arm_cp.0_3, .Lcpi_end2-__arm_cp.0_3
.LCPI0_4:
.L.str.1:
	.asciz	"HR_val : %#08x(%d)\t \n\000\000"
.Lfunc_end0:
	.size	Get_Data_From_MAX30102, .Lfunc_end0-Get_Data_From_MAX30102
	.cfi_endproc
	.cantunwind
	.fnend
                                        @ -- End function
	.section	.text.Config_MAX30102,"ax",%progbits
	.hidden	Config_MAX30102                 @ -- Begin function Config_MAX30102
	.globl	Config_MAX30102
	.p2align	2
	.type	Config_MAX30102,%function
	.code	16                              @ @Config_MAX30102
	.thumb_func
Config_MAX30102:
.Lfunc_begin1:
	.loc	2 54 0 is_stmt 1                @ i2c_max30102.c:54:0
	.fnstart
	.cfi_startproc
@ %bb.0:
	.save	{r4, r5, r7, lr}
	push	{r4, r5, r7, lr}
	.cfi_def_cfa_offset 16
	.cfi_offset lr, -4
	.cfi_offset r7, -8
	.cfi_offset r5, -12
	.cfi_offset r4, -16
.Ltmp3:
	@DEBUG_VALUE: Config_MAX30102:ret <- 2
	.loc	2 57 5 prologue_end             @ i2c_max30102.c:57:5
	ldr	r0, __arm_cp.1_0
	bl	puts
	.loc	2 58 5                          @ i2c_max30102.c:58:5
	ldr	r0, __arm_cp.1_1
	bl	puts
	.loc	2 59 5                          @ i2c_max30102.c:59:5
	ldr	r0, __arm_cp.1_2
	bl	puts
	ldr	r4, __arm_cp.1_3
	movs	r5, #87
	movs	r2, #8
	movs	r3, #16
	.loc	2 65 9                          @ i2c_max30102.c:65:9
	mov	r0, r4
	mov	r1, r5
	bl	I2C_WriteByteOneReg
	mov	r1, r0
.Ltmp4:
	@DEBUG_VALUE: Config_MAX30102:ret <- undef
	.loc	2 66 3                          @ i2c_max30102.c:66:3
	ldr	r0, __arm_cp.1_4
	bl	__2printf
	movs	r2, #9
	movs	r3, #2
	.loc	2 71 9                          @ i2c_max30102.c:71:9
	mov	r0, r4
	mov	r1, r5
	bl	I2C_WriteByteOneReg
	mov	r1, r0
	@DEBUG_VALUE: Config_MAX30102:ret <- undef
	.loc	2 72 3                          @ i2c_max30102.c:72:3
	ldr	r0, __arm_cp.1_5
	bl	__2printf
	movs	r2, #10
	movs	r3, #99
	.loc	2 79 9                          @ i2c_max30102.c:79:9
	mov	r0, r4
	mov	r1, r5
	bl	I2C_WriteByteOneReg
	mov	r1, r0
	@DEBUG_VALUE: Config_MAX30102:ret <- undef
	.loc	2 80 3                          @ i2c_max30102.c:80:3
	ldr	r0, __arm_cp.1_6
	bl	__2printf
	movs	r2, #12
	movs	r3, #63
	.loc	2 85 9                          @ i2c_max30102.c:85:9
	mov	r0, r4
	mov	r1, r5
	bl	I2C_WriteByteOneReg
	mov	r1, r0
	@DEBUG_VALUE: Config_MAX30102:ret <- undef
	.loc	2 86 3                          @ i2c_max30102.c:86:3
	adr	r0, .LCPI1_7
	bl	__2printf
	movs	r2, #17
	movs	r3, #1
	.loc	2 94 9                          @ i2c_max30102.c:94:9
	mov	r0, r4
	mov	r1, r5
	bl	I2C_WriteByteOneReg
	mov	r1, r0
	@DEBUG_VALUE: Config_MAX30102:ret <- undef
	.loc	2 95 3                          @ i2c_max30102.c:95:3
	adr	r0, .LCPI1_8
	bl	__2printf
	.loc	2 97 1                          @ i2c_max30102.c:97:1
	pop	{r4, r5, r7, pc}
.Ltmp5:
	.p2align	2
@ %bb.1:
	.loc	2 0 1 is_stmt 0                 @ i2c_max30102.c:0:1
__arm_cp.1_0:
	.long	.Lstr.10
.Lcpi_end3:
	.size	__arm_cp.1_0, .Lcpi_end3-__arm_cp.1_0
__arm_cp.1_1:
	.long	.Lstr.11
.Lcpi_end4:
	.size	__arm_cp.1_1, .Lcpi_end4-__arm_cp.1_1
__arm_cp.1_2:
	.long	.Lstr.12
.Lcpi_end5:
	.size	__arm_cp.1_2, .Lcpi_end5-__arm_cp.1_2
__arm_cp.1_3:
	.long	1074266112                      @ 0x40080000
.Lcpi_end6:
	.size	__arm_cp.1_3, .Lcpi_end6-__arm_cp.1_3
__arm_cp.1_4:
	.long	.L.str.4
.Lcpi_end7:
	.size	__arm_cp.1_4, .Lcpi_end7-__arm_cp.1_4
__arm_cp.1_5:
	.long	.L.str.5
.Lcpi_end8:
	.size	__arm_cp.1_5, .Lcpi_end8-__arm_cp.1_5
__arm_cp.1_6:
	.long	.L.str.6
.Lcpi_end9:
	.size	__arm_cp.1_6, .Lcpi_end9-__arm_cp.1_6
.LCPI1_7:
.L.str.7:
	.asciz	"|      [4]MAX30102_LED1_AMP    --- ret %d          |\n\000\000"
.LCPI1_8:
.L.str.8:
	.asciz	"|      [5]MAX31012_MLED_CTRL1  --- ret %d          |\n\000\000"
.Lfunc_end1:
	.size	Config_MAX30102, .Lfunc_end1-Config_MAX30102
	.cfi_endproc
	.cantunwind
	.fnend
                                        @ -- End function
	.hidden	au8RDataBuf                     @ @au8RDataBuf
	.type	au8RDataBuf,%object
	.section	.bss.au8RDataBuf,"aw",%nobits
	.globl	au8RDataBuf
au8RDataBuf:
	.zero	6
	.size	au8RDataBuf, 6

	.hidden	hr_val                          @ @hr_val
	.type	hr_val,%object
	.section	.bss.hr_val,"aw",%nobits
	.globl	hr_val
	.p2align	2
hr_val:
	.long	0                               @ 0x0
	.size	hr_val, 4

	.type	.L.str.4,%object                @ @.str.4
	.section	.rodata.str1.1,"aMS",%progbits,1
.L.str.4:
	.asciz	"|      [1]MAX30102_FIFO_CONFIG --- ret %d          |\n"
	.size	.L.str.4, 54

	.type	.L.str.5,%object                @ @.str.5
.L.str.5:
	.asciz	"|      [2]MAX30102_MODE_CONFIG --- ret %d          |\n"
	.size	.L.str.5, 54

	.type	.L.str.6,%object                @ @.str.6
.L.str.6:
	.asciz	"|      [3]MAX30102_SPO2_CONFIG --- ret %d          |\n"
	.size	.L.str.6, 54

	.hidden	spo2_val                        @ @spo2_val
	.type	spo2_val,%object
	.section	.bss.spo2_val,"aw",%nobits
	.globl	spo2_val
	.p2align	2
spo2_val:
	.long	0                               @ 0x0
	.size	spo2_val, 4

	.type	.Lstr.10,%object                @ @str.10
	.section	.rodata.str1.1,"aMS",%progbits,1
.Lstr.10:
	.asciz	"+-------------------------------------------------------+"
	.size	.Lstr.10, 58

	.type	.Lstr.11,%object                @ @str.11
.Lstr.11:
	.asciz	"|          Configuration MAX30102 in SECURE             |"
	.size	.Lstr.11, 58

	.type	.Lstr.12,%object                @ @str.12
.Lstr.12:
	.asciz	"+-------------------------------------------------------+"
	.size	.Lstr.12, 58

	.globl	_printf_percent
	.globl	_printf_flags
	.globl	_printf_widthprec
	.globl	_printf_pre_padding
	.globl	_printf_x
	.globl	_printf_d
	.globl	_printf_int_dec
	.globl	_printf_longlong_hex
	.hidden	_printf_percent
	.hidden	_printf_flags
	.hidden	_printf_widthprec
	.hidden	_printf_pre_padding
	.hidden	_printf_x
	.hidden	_printf_d
	.hidden	_printf_int_dec
	.hidden	_printf_longlong_hex
	.section	".note.GNU-stack","",%progbits
	.eabi_attribute	30, 1	@ Tag_ABI_optimization_goals
	.ARM_attribute	16, 1	@ Tag_AV_eba