	.text
	.syntax unified
	.eabi_attribute	67, "2.09"	@ Tag_conformance
	.cpu	cortex-m23
	.eabi_attribute	6, 16	@ Tag_CPU_arch
	.eabi_attribute	7, 77	@ Tag_CPU_arch_profile
	.eabi_attribute	8, 0	@ Tag_ARM_ISA_use
	.eabi_attribute	9, 3	@ Tag_THUMB_ISA_use
	.eabi_attribute	34, 0	@ Tag_CPU_unaligned_access
	.eabi_attribute	17, 1	@ Tag_ABI_PCS_GOT_use
	.eabi_attribute	20, 2	@ Tag_ABI_FP_denormal
	.eabi_attribute	21, 0	@ Tag_ABI_FP_exceptions
	.eabi_attribute	23, 1	@ Tag_ABI_FP_number_model
	.eabi_attribute	24, 1	@ Tag_ABI_align_needed
	.eabi_attribute	25, 1	@ Tag_ABI_align_preserved
	.eabi_attribute	38, 1	@ Tag_ABI_FP_16bit_format
	.eabi_attribute	18, 2	@ Tag_ABI_PCS_wchar_t
	.eabi_attribute	26, 1	@ Tag_ABI_enum_size
	.eabi_attribute	14, 0	@ Tag_ABI_PCS_R9_use
	.file	"main.c"
	.file	1 "C:\\" "Keil_v5\\ARM\\ARMCLANG\\Bin\\..\\include\\stdint.h"
	.file	2 "C:\\Users\\shw26\\OneDrive\\Desktop\\2021\\2021-1\\\354\272\241\354\212\244\355\206\244\353\224\224\354\236\220\354\235\2702\\Nuvoton\\M2351_BSP_v3.00.004\\M2351Series_BSP_CMSIS_V3.00.004\\MyProject\\I2C_MAX30102" "main.c"
	.file	3 "C:\\Users\\shw26\\OneDrive\\Desktop\\2021\\2021-1\\\354\272\241\354\212\244\355\206\244\353\224\224\354\236\220\354\235\2702\\Nuvoton\\M2351_BSP_v3.00.004\\M2351Series_BSP_CMSIS_V3.00.004\\MyProject\\I2C_MAX30102" "../../Library/Device/Nuvoton/M2351/Include\\M2351.h"
	.file	4 "C:\\Users\\shw26\\OneDrive\\Desktop\\2021\\2021-1\\\354\272\241\354\212\244\355\206\244\353\224\224\354\236\220\354\235\2702\\Nuvoton\\M2351_BSP_v3.00.004\\M2351Series_BSP_CMSIS_V3.00.004\\MyProject\\I2C_MAX30102" "../../Library/Device/Nuvoton/M2351/Include/i2c_reg.h"
	.file	5 "C:\\Users\\shw26\\OneDrive\\Desktop\\2021\\2021-1\\\354\272\241\354\212\244\355\206\244\353\224\224\354\236\220\354\235\2702\\Nuvoton\\M2351_BSP_v3.00.004\\M2351Series_BSP_CMSIS_V3.00.004\\MyProject\\I2C_MAX30102" "../../Library/Device/Nuvoton/M2351/Include/sys_reg.h"
	.file	6 "C:\\Users\\shw26\\OneDrive\\Desktop\\2021\\2021-1\\\354\272\241\354\212\244\355\206\244\353\224\224\354\236\220\354\235\2702\\Nuvoton\\M2351_BSP_v3.00.004\\M2351Series_BSP_CMSIS_V3.00.004\\MyProject\\I2C_MAX30102" "../../Library/Device/Nuvoton/M2351/Include/clk_reg.h"
	.file	7 "C:\\Users\\shw26\\OneDrive\\Desktop\\2021\\2021-1\\\354\272\241\354\212\244\355\206\244\353\224\224\354\236\220\354\235\2702\\Nuvoton\\M2351_BSP_v3.00.004\\M2351Series_BSP_CMSIS_V3.00.004\\MyProject\\I2C_MAX30102" "../../Library/Device/Nuvoton/M2351/Include/uart_reg.h"
	.file	8 "C:\\Users\\shw26\\OneDrive\\Desktop\\2021\\2021-1\\\354\272\241\354\212\244\355\206\244\353\224\224\354\236\220\354\235\2702\\Nuvoton\\M2351_BSP_v3.00.004\\M2351Series_BSP_CMSIS_V3.00.004\\MyProject\\I2C_MAX30102" "../../Library/CMSIS/Include\\core_armv8mbl.h"
	.file	9 "C:\\Users\\shw26\\OneDrive\\Desktop\\2021\\2021-1\\\354\272\241\354\212\244\355\206\244\353\224\224\354\236\220\354\235\2702\\Nuvoton\\M2351_BSP_v3.00.004\\M2351Series_BSP_CMSIS_V3.00.004\\MyProject\\I2C_MAX30102" "../../Library/Device/Nuvoton/M2351/Include/gpio_reg.h"
	.section	.text.LED_On,"ax",%progbits
	.hidden	LED_On                          @ -- Begin function LED_On
	.globl	LED_On
	.p2align	2
	.type	LED_On,%function
	.code	16                              @ @LED_On
	.thumb_func
LED_On:
.Lfunc_begin0:
	.loc	2 35 0                          @ main.c:35:0
	.fnstart
	.cfi_sections .debug_frame
	.cfi_startproc
@ %bb.0:
	.save	{r7, lr}
	push	{r7, lr}
	.cfi_def_cfa_offset 8
	.cfi_offset lr, -4
	.cfi_offset r7, -8
.Ltmp0:
	.loc	2 36 5 prologue_end             @ main.c:36:5
	adr	r0, .LCPI0_0
	bl	puts
	ldr	r1, __arm_cp.0_1
	movs	r0, #0
	.loc	2 37 10                         @ main.c:37:10
	str	r0, [r1]
	ldr	r1, __arm_cp.0_2
	.loc	2 38 12                         @ main.c:38:12
	str	r0, [r1]
	.loc	2 39 5                          @ main.c:39:5
	pop	{r7, pc}
.Ltmp1:
	.p2align	2
@ %bb.1:
	.loc	2 0 5 is_stmt 0                 @ main.c:0:5
.LCPI0_0:
.Lstr:
	.asciz	"Secure/Non-secure LED On call by Secure"
__arm_cp.0_1:
	.long	1073760296                      @ 0x40004828
.Lcpi_end0:
	.size	__arm_cp.0_1, .Lcpi_end0-__arm_cp.0_1
__arm_cp.0_2:
	.long	1342195844                      @ 0x50004884
.Lcpi_end1:
	.size	__arm_cp.0_2, .Lcpi_end1-__arm_cp.0_2
.Lfunc_end0:
	.size	LED_On, .Lfunc_end0-LED_On
	.cfi_endproc
	.cantunwind
	.fnend
                                        @ -- End function
	.section	.text.LED_Off,"ax",%progbits
	.hidden	LED_Off                         @ -- Begin function LED_Off
	.globl	LED_Off
	.p2align	2
	.type	LED_Off,%function
	.code	16                              @ @LED_Off
	.thumb_func
LED_Off:
.Lfunc_begin1:
	.loc	2 43 0 is_stmt 1                @ main.c:43:0
	.fnstart
	.cfi_startproc
@ %bb.0:
	.save	{r7, lr}
	push	{r7, lr}
	.cfi_def_cfa_offset 8
	.cfi_offset lr, -4
	.cfi_offset r7, -8
.Ltmp2:
	.loc	2 44 5 prologue_end             @ main.c:44:5
	adr	r0, .LCPI1_0
	bl	puts
	ldr	r1, __arm_cp.1_1
	movs	r0, #1
	.loc	2 45 10                         @ main.c:45:10
	str	r0, [r1]
	ldr	r1, __arm_cp.1_2
	.loc	2 46 12                         @ main.c:46:12
	str	r0, [r1]
	.loc	2 47 5                          @ main.c:47:5
	pop	{r7, pc}
.Ltmp3:
	.p2align	2
@ %bb.1:
	.loc	2 0 5 is_stmt 0                 @ main.c:0:5
.LCPI1_0:
.Lstr.8:
	.asciz	"Secure/Non-secure LED Off call by Secure\000\000\000"
__arm_cp.1_1:
	.long	1073760296                      @ 0x40004828
.Lcpi_end2:
	.size	__arm_cp.1_1, .Lcpi_end2-__arm_cp.1_1
__arm_cp.1_2:
	.long	1342195844                      @ 0x50004884
.Lcpi_end3:
	.size	__arm_cp.1_2, .Lcpi_end3-__arm_cp.1_2
.Lfunc_end1:
	.size	LED_Off, .Lfunc_end1-LED_Off
	.cfi_endproc
	.cantunwind
	.fnend
                                        @ -- End function
	.section	.text.SysTick_Handler,"ax",%progbits
	.hidden	SysTick_Handler                 @ -- Begin function SysTick_Handler
	.globl	SysTick_Handler
	.p2align	1
	.type	SysTick_Handler,%function
	.code	16                              @ @SysTick_Handler
	.thumb_func
SysTick_Handler:
.Lfunc_begin2:
	.loc	2 55 0 is_stmt 1                @ main.c:55:0
	.fnstart
	.cfi_startproc
@ %bb.0:
	.loc	2 107 1 prologue_end            @ main.c:107:1
	bx	lr
.Ltmp4:
.Lfunc_end2:
	.size	SysTick_Handler, .Lfunc_end2-SysTick_Handler
	.cfi_endproc
	.cantunwind
	.fnend
                                        @ -- End function
	.section	.text.I2C0_Init,"ax",%progbits
	.hidden	I2C0_Init                       @ -- Begin function I2C0_Init
	.globl	I2C0_Init
	.p2align	2
	.type	I2C0_Init,%function
	.code	16                              @ @I2C0_Init
	.thumb_func
I2C0_Init:
.Lfunc_begin3:
	.loc	2 113 0                         @ main.c:113:0
	.fnstart
	.cfi_startproc
@ %bb.0:
	.save	{r4, lr}
	push	{r4, lr}
	.cfi_def_cfa_offset 8
	.cfi_offset lr, -4
	.cfi_offset r4, -8
	ldr	r4, __arm_cp.3_0
	ldr	r1, __arm_cp.3_1
.Ltmp5:
	.loc	2 116 5 prologue_end            @ main.c:116:5
	mov	r0, r4
	bl	I2C_Open
	.loc	2 119 34                        @ main.c:119:34
	mov	r0, r4
	bl	I2C_GetBusClockFreq
	mov	r1, r0
	.loc	2 119 5 is_stmt 0               @ main.c:119:5
	adr	r0, .LCPI3_2
	bl	__2printf
	movs	r2, #87
	movs	r1, #0
	.loc	2 122 5 is_stmt 1               @ main.c:122:5
	mov	r0, r4
	mov	r3, r1
	bl	I2C_SetSlaveAddr
	.loc	2 130 1                         @ main.c:130:1
	pop	{r4, pc}
.Ltmp6:
	.p2align	2
@ %bb.1:
	.loc	2 0 1 is_stmt 0                 @ main.c:0:1
__arm_cp.3_0:
	.long	1074266112                      @ 0x40080000
.Lcpi_end4:
	.size	__arm_cp.3_0, .Lcpi_end4-__arm_cp.3_0
__arm_cp.3_1:
	.long	400000                          @ 0x61a80
.Lcpi_end5:
	.size	__arm_cp.3_1, .Lcpi_end5-__arm_cp.3_1
.LCPI3_2:
.L.str.2:
	.asciz	"I2C0 clock %d Hz\n\000\000"
.Lfunc_end3:
	.size	I2C0_Init, .Lfunc_end3-I2C0_Init
	.cfi_endproc
	.cantunwind
	.fnend
                                        @ -- End function
	.section	.text.SYS_Init,"ax",%progbits
	.hidden	SYS_Init                        @ -- Begin function SYS_Init
	.globl	SYS_Init
	.p2align	2
	.type	SYS_Init,%function
	.code	16                              @ @SYS_Init
	.thumb_func
SYS_Init:
.Lfunc_begin4:
	.loc	2 134 0 is_stmt 1               @ main.c:134:0
	.fnstart
	.cfi_startproc
@ %bb.0:
	.save	{r4, r5, r6, r7, lr}
	push	{r4, r5, r6, r7, lr}
	.cfi_def_cfa_offset 20
	.cfi_offset lr, -4
	.cfi_offset r7, -8
	.cfi_offset r6, -12
	.cfi_offset r5, -16
	.cfi_offset r4, -20
	.pad	#4
	sub	sp, #4
	.cfi_def_cfa_offset 24
	ldr	r2, __arm_cp.4_0
.Ltmp7:
	.loc	2 136 27 prologue_end           @ main.c:136:27
	ldr	r0, [r2, #40]
	movw	r1, #3840
	.loc	2 136 36 is_stmt 0              @ main.c:136:36
	bics	r0, r1
	movw	r1, #2560
	.loc	2 136 66                        @ main.c:136:66
	adds	r0, r0, r1
	.loc	2 136 19                        @ main.c:136:19
	str	r0, [r2, #40]
	.loc	2 137 27 is_stmt 1              @ main.c:137:27
	ldr	r0, [r2, #40]
	movw	r1, #61440
	.loc	2 137 36 is_stmt 0              @ main.c:137:36
	bics	r0, r1
	movw	r1, #40960
	.loc	2 137 66                        @ main.c:137:66
	adds	r0, r0, r1
	.loc	2 137 19                        @ main.c:137:19
	str	r0, [r2, #40]
	movs	r4, #4
	.loc	2 144 5 is_stmt 1               @ main.c:144:5
	mov	r0, r4
	bl	CLK_EnableXtalRC
	movs	r0, #16
	.loc	2 147 5                         @ main.c:147:5
	bl	CLK_WaitClockReady
	movs	r0, #7
	movs	r6, #0
	.loc	2 150 5                         @ main.c:150:5
	mov	r1, r6
	bl	CLK_SetHCLK
	movs	r5, #1
	.loc	2 153 5                         @ main.c:153:5
	mov	r0, r5
	bl	CLK_EnableXtalRC
	.loc	2 156 5                         @ main.c:156:5
	mov	r0, r5
	bl	CLK_WaitClockReady
	ldr	r7, __arm_cp.4_1
	ldr	r0, __arm_cp.4_2
	.loc	2 160 17                        @ main.c:160:17
	str	r0, [r7, #56]
	.loc	2 163 5                         @ main.c:163:5
	mov	r0, r4
	bl	CLK_WaitClockReady
	movs	r0, #2
	.loc	2 166 5                         @ main.c:166:5
	mov	r1, r6
	bl	CLK_SetHCLK
	lsls	r0, r5, #16
	.loc	2 169 18                        @ main.c:169:18
	ldr	r1, [r7]
	orrs	r1, r0
	str	r1, [r7]
	lsls	r0, r5, #18
	.loc	2 175 15                        @ main.c:175:15
	mov	r1, r7
	subs	r1, #8
	ldr	r2, [r1]
	orrs	r2, r0
	str	r2, [r1]
.LBB4_1:                                @ =>This Inner Loop Header: Depth=1
	.loc	2 176 17                        @ main.c:176:17
	ldr	r0, [r7, #72]
	.loc	2 176 5 is_stmt 0               @ main.c:176:5
	lsls	r0, r0, #25
	bpl	.LBB4_1
@ %bb.2:
	.loc	2 0 5                           @ main.c:0:5
	movs	r0, #5
	.loc	2 177 18 is_stmt 1              @ main.c:177:18
	str	r0, [r7, #8]
	movs	r0, #15
	lsls	r0, r0, #24
	.loc	2 180 18                        @ main.c:180:18
	str	r0, [r7, #12]
	movs	r0, #207
	lsls	r0, r0, #24
	.loc	2 181 18                        @ main.c:181:18
	str	r0, [r7, #20]
	.loc	2 184 18                        @ main.c:184:18
	ldr	r0, [r7]
	ldr	r1, __arm_cp.4_3
	orrs	r1, r0
	str	r1, [r7]
	ldr	r4, __arm_cp.4_0
	.loc	2 195 5                         @ main.c:195:5
	mov	r0, r4
	subs	r0, #40
	bl	CLK_EnableModuleClock
	.loc	2 198 5                         @ main.c:198:5
	mov	r0, r4
	subs	r0, #39
	bl	CLK_EnableModuleClock
	.loc	2 204 21                        @ main.c:204:21
	ldr	r0, __arm_cp.4_4
	ldr	r1, __arm_cp.4_5
	str	r1, [r0]
	.loc	2 203 21                        @ main.c:203:21
	ldr	r0, __arm_cp.4_6
	ldr	r1, __arm_cp.4_7
	str	r1, [r0]
	.loc	2 205 21                        @ main.c:205:21
	ldr	r0, __arm_cp.4_8
	movs	r1, #64
	str	r1, [r0]
	.loc	2 212 27                        @ main.c:212:27
	ldr	r0, [r4, #12]
	ldr	r1, __arm_cp.4_9
	.loc	2 212 36 is_stmt 0              @ main.c:212:36
	ands	r0, r1
	movs	r2, #51
	lsls	r2, r2, #17
	.loc	2 212 101                       @ main.c:212:101
	adds	r0, r0, r2
	.loc	2 212 19                        @ main.c:212:19
	str	r0, [r4, #12]
	.loc	2 216 19 is_stmt 1              @ main.c:216:19
	ldr	r0, [r4]
	ands	r0, r1
	str	r0, [r4]
	movs	r0, #153
	lsls	r0, r0, #16
	.loc	2 217 19                        @ main.c:217:19
	ldr	r1, [r4]
	orrs	r1, r0
	str	r1, [r4]
	.loc	2 221 19                        @ main.c:221:19
	ldr	r0, [r4]
	movw	r1, #65280
	bics	r0, r1
	str	r0, [r4]
	.loc	2 222 19                        @ main.c:222:19
	ldr	r0, [r4]
	movw	r1, #39168
	orrs	r1, r0
	str	r1, [r4]
	.loc	2 224 1                         @ main.c:224:1
	add	sp, #4
	pop	{r4, r5, r6, r7, pc}
.Ltmp8:
	.p2align	2
@ %bb.3:
	.loc	2 0 1 is_stmt 0                 @ main.c:0:1
__arm_cp.4_0:
	.long	1073741872                      @ 0x40000030
.Lcpi_end6:
	.size	__arm_cp.4_0, .Lcpi_end6-__arm_cp.4_0
__arm_cp.4_1:
	.long	1073742344                      @ 0x40000208
.Lcpi_end7:
	.size	__arm_cp.4_1, .Lcpi_end7-__arm_cp.4_1
__arm_cp.4_2:
	.long	525326                          @ 0x8040e
.Lcpi_end8:
	.size	__arm_cp.4_2, .Lcpi_end8-__arm_cp.4_2
__arm_cp.4_3:
	.long	3080196                         @ 0x2f0004
.Lcpi_end9:
	.size	__arm_cp.4_3, .Lcpi_end9-__arm_cp.4_3
__arm_cp.4_4:
	.long	SystemCoreClock
.Lcpi_end10:
	.size	__arm_cp.4_4, .Lcpi_end10-__arm_cp.4_4
__arm_cp.4_5:
	.long	64000000                        @ 0x3d09000
.Lcpi_end11:
	.size	__arm_cp.4_5, .Lcpi_end11-__arm_cp.4_5
__arm_cp.4_6:
	.long	PllClock
.Lcpi_end12:
	.size	__arm_cp.4_6, .Lcpi_end12-__arm_cp.4_6
__arm_cp.4_7:
	.long	128000000                       @ 0x7a12000
.Lcpi_end13:
	.size	__arm_cp.4_7, .Lcpi_end13-__arm_cp.4_7
__arm_cp.4_8:
	.long	CyclesPerUs
.Lcpi_end14:
	.size	__arm_cp.4_8, .Lcpi_end14-__arm_cp.4_8
__arm_cp.4_9:
	.long	4278255615                      @ 0xff00ffff
.Lcpi_end15:
	.size	__arm_cp.4_9, .Lcpi_end15-__arm_cp.4_9
.Lfunc_end4:
	.size	SYS_Init, .Lfunc_end4-SYS_Init
	.cfi_endproc
	.cantunwind
	.fnend
                                        @ -- End function
	.section	.text.DEBUG_PORT_Init,"ax",%progbits
	.hidden	DEBUG_PORT_Init                 @ -- Begin function DEBUG_PORT_Init
	.globl	DEBUG_PORT_Init
	.p2align	2
	.type	DEBUG_PORT_Init,%function
	.code	16                              @ @DEBUG_PORT_Init
	.thumb_func
DEBUG_PORT_Init:
.Lfunc_begin5:
	.loc	2 231 0 is_stmt 1               @ main.c:231:0
	.fnstart
	.cfi_startproc
@ %bb.0:
	ldr	r0, __arm_cp.5_0
	movs	r1, #3
.Ltmp9:
	.loc	2 232 22 prologue_end           @ main.c:232:22
	str	r1, [r0]
	ldr	r1, __arm_cp.5_1
	.loc	2 233 22                        @ main.c:233:22
	str	r1, [r0, #24]
	.loc	2 234 1                         @ main.c:234:1
	bx	lr
.Ltmp10:
	.p2align	2
@ %bb.1:
	.loc	2 0 1 is_stmt 0                 @ main.c:0:1
__arm_cp.5_0:
	.long	1342636044                      @ 0x5007000c
.Lcpi_end16:
	.size	__arm_cp.5_0, .Lcpi_end16-__arm_cp.5_0
__arm_cp.5_1:
	.long	805306470                       @ 0x30000066
.Lcpi_end17:
	.size	__arm_cp.5_1, .Lcpi_end17-__arm_cp.5_1
.Lfunc_end5:
	.size	DEBUG_PORT_Init, .Lfunc_end5-DEBUG_PORT_Init
	.cfi_endproc
	.cantunwind
	.fnend
                                        @ -- End function
	.section	.text.WIFI_PORT_Init,"ax",%progbits
	.hidden	WIFI_PORT_Init                  @ -- Begin function WIFI_PORT_Init
	.globl	WIFI_PORT_Init
	.p2align	2
	.type	WIFI_PORT_Init,%function
	.code	16                              @ @WIFI_PORT_Init
	.thumb_func
WIFI_PORT_Init:
.Lfunc_begin6:
	.loc	2 240 0 is_stmt 1               @ main.c:240:0
	.fnstart
	.cfi_startproc
@ %bb.0:
	movs	r0, #1
	lsls	r0, r0, #20
	ldr	r1, __arm_cp.6_0
.Ltmp11:
	.loc	2 241 18 prologue_end           @ main.c:241:18
	ldr	r2, [r1]
	orrs	r2, r0
	str	r2, [r1]
	movs	r0, #3
	lsls	r2, r0, #26
	.loc	2 242 26                        @ main.c:242:26
	ldr	r3, [r1, #20]
	.loc	2 242 65 is_stmt 0              @ main.c:242:65
	orrs	r3, r2
	.loc	2 242 18                        @ main.c:242:18
	str	r3, [r1, #20]
	ldr	r1, __arm_cp.6_1
	.loc	2 244 21 is_stmt 1              @ main.c:244:21
	str	r0, [r1]
	ldr	r0, __arm_cp.6_2
	.loc	2 245 21                        @ main.c:245:21
	str	r0, [r1, #24]
	ldr	r0, __arm_cp.6_3
	.loc	2 249 27                        @ main.c:249:27
	ldr	r1, [r0]
	movs	r2, #85
	.loc	2 249 36 is_stmt 0              @ main.c:249:36
	orrs	r2, r1
	movs	r1, #170
	.loc	2 249 98                        @ main.c:249:98
	bics	r2, r1
	.loc	2 249 19                        @ main.c:249:19
	str	r2, [r0]
	.loc	2 250 1 is_stmt 1               @ main.c:250:1
	bx	lr
.Ltmp12:
	.p2align	2
@ %bb.1:
	.loc	2 0 1 is_stmt 0                 @ main.c:0:1
__arm_cp.6_0:
	.long	1073742344                      @ 0x40000208
.Lcpi_end18:
	.size	__arm_cp.6_0, .Lcpi_end18-__arm_cp.6_0
__arm_cp.6_1:
	.long	1342648332                      @ 0x5007300c
.Lcpi_end19:
	.size	__arm_cp.6_1, .Lcpi_end19-__arm_cp.6_1
__arm_cp.6_2:
	.long	805306470                       @ 0x30000066
.Lcpi_end20:
	.size	__arm_cp.6_2, .Lcpi_end20-__arm_cp.6_2
__arm_cp.6_3:
	.long	1073741896                      @ 0x40000048
.Lcpi_end21:
	.size	__arm_cp.6_3, .Lcpi_end21-__arm_cp.6_3
.Lfunc_end6:
	.size	WIFI_PORT_Init, .Lfunc_end6-WIFI_PORT_Init
	.cfi_endproc
	.cantunwind
	.fnend
                                        @ -- End function
	.section	.text.Nonsecure_Init,"ax",%progbits
	.hidden	Nonsecure_Init                  @ -- Begin function Nonsecure_Init
	.globl	Nonsecure_Init
	.p2align	2
	.type	Nonsecure_Init,%function
	.code	16                              @ @Nonsecure_Init
	.thumb_func
Nonsecure_Init:
.Lfunc_begin7:
	.loc	2 254 0 is_stmt 1               @ main.c:254:0
	.fnstart
	.cfi_startproc
@ %bb.0:
	.save	{r4, lr}
	push	{r4, lr}
	.cfi_def_cfa_offset 8
	.cfi_offset lr, -4
	.cfi_offset r4, -8
	ldr	r0, __arm_cp.7_0
	ldr	r1, __arm_cp.7_1
.Ltmp13:
	.loc	2 258 18 prologue_end           @ main.c:258:18
	str	r1, [r0]
	.loc	2 261 43                        @ main.c:261:43
	ldr	r1, [r0]
	.loc	2 261 21 is_stmt 0              @ main.c:261:21
	ldr	r1, [r1]
.Ltmp14:
	@DEBUG_VALUE: __TZ_set_MSP_NS:topOfMainStack <- $r1
	.file	10 "C:\\Users\\shw26\\OneDrive\\Desktop\\2021\\2021-1\\\354\272\241\354\212\244\355\206\244\353\224\224\354\236\220\354\235\2702\\Nuvoton\\M2351_BSP_v3.00.004\\M2351Series_BSP_CMSIS_V3.00.004\\MyProject\\I2C_MAX30102" "../../Library/CMSIS/Include/cmsis_armclang.h"
	.loc	10 331 3 is_stmt 1              @ ../../Library/CMSIS/Include/cmsis_armclang.h:331:3
	@APP
	msr	msp_ns, r1
	@NO_APP
.Ltmp15:
	.loc	2 264 54                        @ main.c:264:54
	ldr	r0, [r0]
	.loc	2 264 31 is_stmt 0              @ main.c:264:31
	ldr	r4, [r0, #4]
.Ltmp16:
	@DEBUG_VALUE: Nonsecure_Init:fp <- [DW_OP_constu 18446744073709551614, DW_OP_and, DW_OP_stack_value] $r4
	.loc	2 271 8 is_stmt 1               @ main.c:271:8
	lsrs	r0, r4, #28
	cmp	r0, #1
	bne	.LBB7_2
.Ltmp17:
@ %bb.1:
	@DEBUG_VALUE: Nonsecure_Init:fp <- [DW_OP_constu 18446744073709551614, DW_OP_and, DW_OP_stack_value] $r4
	.loc	2 273 9                         @ main.c:273:9
	adr	r0, .LCPI7_8
	bl	puts
	movs	r0, #1
.Ltmp18:
	.loc	2 268 10                        @ main.c:268:10
	bics	r4, r0
.Ltmp19:
	@DEBUG_VALUE: Nonsecure_Init:fp <- $r4
	.loc	2 0 10 is_stmt 0                @ main.c:0:10
	movs	r0, #0
.Ltmp20:
	.loc	2 274 9 is_stmt 1               @ main.c:274:9
	push	{r4, r5, r6, r7}
	mov	r7, r11
	mov	r6, r10
	mov	r5, r9
	push	{r5, r6, r7}
	mov	r5, r8
	push	{r5}
	mov	r1, #1
	bics	r4, r1
.Ltmp21:
	mov	r1, r4
	mov	r2, r4
	mov	r3, r4
	mov	r5, r4
	mov	r6, r4
	mov	r7, r4
	mov	r8, r4
	mov	r9, r4
	mov	r10, r4
	mov	r11, r4
	mov	r12, r4
	msr	apsr, r4
	blxns	r4
	pop	{r4, r5, r6, r7}
	mov	r8, r4
	mov	r9, r5
	mov	r10, r6
	mov	r11, r7
	pop	{r4, r5, r6, r7}
.Ltmp22:
	.loc	2 292 1                         @ main.c:292:1
	pop	{r4, pc}
.LBB7_2:
.Ltmp23:
	@DEBUG_VALUE: Nonsecure_Init:fp <- [DW_OP_constu 18446744073709551614, DW_OP_and, DW_OP_stack_value] $r4
	.loc	2 279 9                         @ main.c:279:9
	adr	r0, .LCPI7_2
	bl	puts
	.loc	2 280 9                         @ main.c:280:9
	adr	r0, .LCPI7_3
	bl	puts
	ldr	r0, __arm_cp.7_4
.Ltmp24:
	@DEBUG_VALUE: __TZ_set_MSP_NS:topOfMainStack <- 805339648
	.loc	10 331 3                        @ ../../Library/CMSIS/Include/cmsis_armclang.h:331:3
	@APP
	msr	msp_ns, r0
	@NO_APP
	ldr	r0, __arm_cp.7_5
	ldr	r1, __arm_cp.7_6
.Ltmp25:
	.loc	2 286 35                        @ main.c:286:35
	str	r1, [r0]
.Ltmp26:
	@DEBUG_VALUE: Nonsecure_Init:fp <- 805339137
	.loc	2 0 35 is_stmt 0                @ main.c:0:35
	movs	r0, #0
	ldr	r1, __arm_cp.7_7
	.loc	2 288 9 is_stmt 1               @ main.c:288:9
	push	{r4, r5, r6, r7}
	mov	r7, r11
	mov	r6, r10
	mov	r5, r9
	mov	r4, r8
	push	{r4, r5, r6, r7}
	mov	r2, #1
	bics	r1, r2
	mov	r2, r1
	mov	r3, r1
	mov	r4, r1
	mov	r5, r1
	mov	r6, r1
	mov	r7, r1
	mov	r8, r1
	mov	r9, r1
	mov	r10, r1
	mov	r11, r1
	mov	r12, r1
	msr	apsr, r1
	blxns	r1
	pop	{r4, r5, r6, r7}
	mov	r8, r4
	mov	r9, r5
	mov	r10, r6
	mov	r11, r7
	pop	{r4, r5, r6, r7}
.Ltmp27:
.LBB7_3:                                @ =>This Inner Loop Header: Depth=1
	@DEBUG_VALUE: Nonsecure_Init:fp <- 805339137
	.loc	2 290 9                         @ main.c:290:9
	b	.LBB7_3
.Ltmp28:
	.p2align	2
@ %bb.4:
	.loc	2 0 9 is_stmt 0                 @ main.c:0:9
__arm_cp.7_0:
	.long	3758288136                      @ 0xe002ed08
.Lcpi_end22:
	.size	__arm_cp.7_0, .Lcpi_end22-__arm_cp.7_0
__arm_cp.7_1:
	.long	268697600                       @ 0x10040000
.Lcpi_end23:
	.size	__arm_cp.7_1, .Lcpi_end23-__arm_cp.7_1
.LCPI7_2:
.Lstr.9:
	.asciz	"No code in non-secure region!\000\000"
.LCPI7_3:
.Lstr.10:
	.asciz	"CPU will halted at non-secure state"
__arm_cp.7_4:
	.long	805339648                       @ 0x30008200
.Lcpi_end24:
	.size	__arm_cp.7_4, .Lcpi_end24-__arm_cp.7_4
__arm_cp.7_5:
	.long	805339136                       @ 0x30008000
.Lcpi_end25:
	.size	__arm_cp.7_5, .Lcpi_end25-__arm_cp.7_5
__arm_cp.7_6:
	.long	3892242431                      @ 0xe7fee7ff
.Lcpi_end26:
	.size	__arm_cp.7_6, .Lcpi_end26-__arm_cp.7_6
__arm_cp.7_7:
	.long	805339137                       @ 0x30008001
.Lcpi_end27:
	.size	__arm_cp.7_7, .Lcpi_end27-__arm_cp.7_7
.LCPI7_8:
.Lstr.11:
	.asciz	"Execute non-secure code ..."
.Lfunc_end7:
	.size	Nonsecure_Init, .Lfunc_end7-Nonsecure_Init
	.cfi_endproc
	.cantunwind
	.fnend
                                        @ -- End function
	.section	.text.main,"ax",%progbits
	.hidden	main                            @ -- Begin function main
	.globl	main
	.p2align	2
	.type	main,%function
	.code	16                              @ @main
	.thumb_func
main:
.Lfunc_begin8:
	.loc	2 299 0 is_stmt 1               @ main.c:299:0
	.fnstart
	.cfi_startproc
@ %bb.0:
	.loc	2 302 5 prologue_end            @ main.c:302:5
	bl	SYS_UnlockReg
	.loc	2 305 5                         @ main.c:305:5
	bl	SYS_Init
	.loc	2 308 5                         @ main.c:308:5
	bl	SYS_LockReg
	.loc	2 311 5                         @ main.c:311:5
	bl	DEBUG_PORT_Init
	.loc	2 312 3                         @ main.c:312:3
	bl	WIFI_PORT_Init
	.loc	2 313 5                         @ main.c:313:5
	bl	I2C0_Init
	.loc	2 316 3                         @ main.c:316:3
	bl	Config_MAX30102
	ldr	r0, __arm_cp.8_0
	movs	r4, #1
	.loc	2 319 5                         @ main.c:319:5
	movw	r1, #15360
	mov	r2, r4
	bl	GPIO_SetMode
	ldr	r0, __arm_cp.8_1
	movs	r1, #2
	.loc	2 322 5                         @ main.c:322:5
	mov	r2, r4
	bl	GPIO_SetMode
	.loc	2 325 23                        @ main.c:325:23
	bl	GetSystemCoreClock
	.loc	2 325 21 is_stmt 0              @ main.c:325:21
	ldr	r1, __arm_cp.8_2
	str	r0, [r1]
	movs	r1, #100
	.loc	2 328 36 is_stmt 1              @ main.c:328:36
	udiv	r0, r0, r1
	.loc	2 328 5 is_stmt 0               @ main.c:328:5
	bl	SysTick_Config
	.loc	2 330 5 is_stmt 1               @ main.c:330:5
	ldr	r0, __arm_cp.8_3
	bl	puts
	.loc	2 331 5                         @ main.c:331:5
	adr	r0, .LCPI8_4
	bl	puts
	.loc	2 332 5                         @ main.c:332:5
	adr	r0, .LCPI8_5
	bl	puts
	.loc	2 334 3                         @ main.c:334:3
	bl	Nonsecure_Init
.LBB8_1:                                @ =>This Inner Loop Header: Depth=1
.Ltmp29:
	.loc	2 341 9                         @ main.c:341:9
	wfi
	.loc	2 342 5                         @ main.c:342:5
	b	.LBB8_1
.Ltmp30:
	.p2align	2
@ %bb.2:
	.loc	2 0 5 is_stmt 0                 @ main.c:0:5
__arm_cp.8_0:
	.long	1073758208                      @ 0x40004000
.Lcpi_end28:
	.size	__arm_cp.8_0, .Lcpi_end28-__arm_cp.8_0
__arm_cp.8_1:
	.long	1342193792                      @ 0x50004080
.Lcpi_end29:
	.size	__arm_cp.8_1, .Lcpi_end29-__arm_cp.8_1
__arm_cp.8_2:
	.long	SystemCoreClock
.Lcpi_end30:
	.size	__arm_cp.8_2, .Lcpi_end30-__arm_cp.8_2
__arm_cp.8_3:
	.long	.Lstr.12
.Lcpi_end31:
	.size	__arm_cp.8_3, .Lcpi_end31-__arm_cp.8_3
.LCPI8_4:
.Lstr.13:
	.asciz	"|             Secure is running ...           |"
.LCPI8_5:
.Lstr.14:
	.asciz	"+---------------------------------------------+"
.Lfunc_end8:
	.size	main, .Lfunc_end8-main
	.cfi_endproc
	.cantunwind
	.fnend
                                        @ -- End function
	.section	.text.SYS_UnlockReg,"ax",%progbits
	.p2align	2                               @ -- Begin function SYS_UnlockReg
	.type	SYS_UnlockReg,%function
	.code	16                              @ @SYS_UnlockReg
	.thumb_func
SYS_UnlockReg:
.Lfunc_begin9:
	.file	11 "C:\\Users\\shw26\\OneDrive\\Desktop\\2021\\2021-1\\\354\272\241\354\212\244\355\206\244\353\224\224\354\236\220\354\235\2702\\Nuvoton\\M2351_BSP_v3.00.004\\M2351Series_BSP_CMSIS_V3.00.004\\MyProject\\I2C_MAX30102" "../../Library/StdDriver/inc\\sys.h"
	.loc	11 3042 0 is_stmt 1             @ ../../Library/StdDriver/inc\sys.h:3042:0
	.fnstart
	.cfi_startproc
@ %bb.0:
	.save	{r4, lr}
	push	{r4, lr}
	.cfi_def_cfa_offset 8
	.cfi_offset lr, -4
	.cfi_offset r4, -8
	ldr	r0, __arm_cp.9_0
	movs	r1, #89
	movs	r2, #22
	movs	r3, #136
.LBB9_1:                                @ =>This Inner Loop Header: Depth=1
.Ltmp31:
	.loc	11 3045 22 prologue_end         @ ../../Library/StdDriver/inc\sys.h:3045:22
	str	r1, [r0]
	.loc	11 3046 22                      @ ../../Library/StdDriver/inc\sys.h:3046:22
	str	r2, [r0]
	.loc	11 3047 22                      @ ../../Library/StdDriver/inc\sys.h:3047:22
	str	r3, [r0]
.Ltmp32:
	.loc	11 3049 16                      @ ../../Library/StdDriver/inc\sys.h:3049:16
	ldr	r4, [r0]
.Ltmp33:
	.loc	11 3048 5                       @ ../../Library/StdDriver/inc\sys.h:3048:5
	cmp	r4, #0
	beq	.LBB9_1
.Ltmp34:
@ %bb.2:
	.loc	11 3050 1                       @ ../../Library/StdDriver/inc\sys.h:3050:1
	pop	{r4, pc}
.Ltmp35:
	.p2align	2
@ %bb.3:
	.loc	11 0 1 is_stmt 0                @ ../../Library/StdDriver/inc\sys.h:0:1
__arm_cp.9_0:
	.long	1073742080                      @ 0x40000100
.Lcpi_end32:
	.size	__arm_cp.9_0, .Lcpi_end32-__arm_cp.9_0
.Lfunc_end9:
	.size	SYS_UnlockReg, .Lfunc_end9-SYS_UnlockReg
	.cfi_endproc
	.cantunwind
	.fnend
                                        @ -- End function
	.section	.text.SYS_LockReg,"ax",%progbits
	.p2align	2                               @ -- Begin function SYS_LockReg
	.type	SYS_LockReg,%function
	.code	16                              @ @SYS_LockReg
	.thumb_func
SYS_LockReg:
.Lfunc_begin10:
	.loc	11 3060 0 is_stmt 1             @ ../../Library/StdDriver/inc\sys.h:3060:0
	.fnstart
	.cfi_startproc
@ %bb.0:
	ldr	r0, __arm_cp.10_0
	movs	r1, #0
.Ltmp36:
	.loc	11 3061 18 prologue_end         @ ../../Library/StdDriver/inc\sys.h:3061:18
	str	r1, [r0]
	.loc	11 3062 1                       @ ../../Library/StdDriver/inc\sys.h:3062:1
	bx	lr
.Ltmp37:
	.p2align	2
@ %bb.1:
	.loc	11 0 1 is_stmt 0                @ ../../Library/StdDriver/inc\sys.h:0:1
__arm_cp.10_0:
	.long	1073742080                      @ 0x40000100
.Lcpi_end33:
	.size	__arm_cp.10_0, .Lcpi_end33-__arm_cp.10_0
.Lfunc_end10:
	.size	SYS_LockReg, .Lfunc_end10-SYS_LockReg
	.cfi_endproc
	.cantunwind
	.fnend
                                        @ -- End function
	.section	.text.SysTick_Config,"ax",%progbits
	.p2align	2                               @ -- Begin function SysTick_Config
	.type	SysTick_Config,%function
	.code	16                              @ @SysTick_Config
	.thumb_func
SysTick_Config:
.Lfunc_begin11:
	.loc	8 1820 0 is_stmt 1              @ ../../Library/CMSIS/Include\core_armv8mbl.h:1820:0
	.fnstart
	.cfi_startproc
@ %bb.0:
	@DEBUG_VALUE: SysTick_Config:ticks <- $r0
	@DEBUG_VALUE: SysTick_Config:ticks <- $r0
	.save	{r4, lr}
	push	{r4, lr}
	.cfi_def_cfa_offset 8
	.cfi_offset lr, -4
	.cfi_offset r4, -8
.Ltmp38:
	.loc	8 1821 14 prologue_end          @ ../../Library/CMSIS/Include\core_armv8mbl.h:1821:14
	subs	r0, r0, #1
.Ltmp39:
	@DEBUG_VALUE: SysTick_Config:ticks <- [DW_OP_LLVM_entry_value 1] $r0
	.loc	8 1821 7 is_stmt 0              @ ../../Library/CMSIS/Include\core_armv8mbl.h:1821:7
	lsrs	r1, r0, #24
	bne	.LBB11_2
.Ltmp40:
@ %bb.1:
	@DEBUG_VALUE: SysTick_Config:ticks <- [DW_OP_LLVM_entry_value 1] $r0
	.loc	8 0 7                           @ ../../Library/CMSIS/Include\core_armv8mbl.h:0:7
	ldr	r4, __arm_cp.11_0
	.loc	8 1826 18 is_stmt 1             @ ../../Library/CMSIS/Include\core_armv8mbl.h:1826:18
	str	r0, [r4, #4]
	.loc	8 1827 3                        @ ../../Library/CMSIS/Include\core_armv8mbl.h:1827:3
	bl	__NVIC_SetPriority
	movs	r0, #0
	.loc	8 1828 18                       @ ../../Library/CMSIS/Include\core_armv8mbl.h:1828:18
	str	r0, [r4, #8]
	movs	r0, #7
	.loc	8 1829 18                       @ ../../Library/CMSIS/Include\core_armv8mbl.h:1829:18
	str	r0, [r4]
.Ltmp41:
.LBB11_2:
	@DEBUG_VALUE: SysTick_Config:ticks <- [DW_OP_LLVM_entry_value 1] $r0
	.loc	8 1833 1                        @ ../../Library/CMSIS/Include\core_armv8mbl.h:1833:1
	pop	{r4, pc}
.Ltmp42:
	.p2align	2
@ %bb.3:
	.loc	8 0 1 is_stmt 0                 @ ../../Library/CMSIS/Include\core_armv8mbl.h:0:1
__arm_cp.11_0:
	.long	3758153744                      @ 0xe000e010
.Lcpi_end34:
	.size	__arm_cp.11_0, .Lcpi_end34-__arm_cp.11_0
.Lfunc_end11:
	.size	SysTick_Config, .Lfunc_end11-SysTick_Config
	.cfi_endproc
	.cantunwind
	.fnend
                                        @ -- End function
	.section	.text.__NVIC_SetPriority,"ax",%progbits
	.p2align	2                               @ -- Begin function __NVIC_SetPriority
	.type	__NVIC_SetPriority,%function
	.code	16                              @ @__NVIC_SetPriority
	.thumb_func
__NVIC_SetPriority:
.Lfunc_begin12:
	.loc	8 1471 0 is_stmt 1              @ ../../Library/CMSIS/Include\core_armv8mbl.h:1471:0
	.fnstart
	.cfi_startproc
@ %bb.0:
	movs	r0, #255
	lsls	r0, r0, #24
	ldr	r1, __arm_cp.12_0
	@DEBUG_VALUE: __NVIC_SetPriority:priority <- 3
	@DEBUG_VALUE: __NVIC_SetPriority:IRQn <- -1
.Ltmp43:
	.loc	8 1479 45 prologue_end          @ ../../Library/CMSIS/Include\core_armv8mbl.h:1479:45
	ldr	r2, [r1]
	.loc	8 1479 71 is_stmt 0             @ ../../Library/CMSIS/Include\core_armv8mbl.h:1479:71
	bics	r2, r0
	movs	r0, #3
	lsls	r0, r0, #30
	.loc	8 1479 104                      @ ../../Library/CMSIS/Include\core_armv8mbl.h:1479:104
	adds	r0, r2, r0
	.loc	8 1479 31                       @ ../../Library/CMSIS/Include\core_armv8mbl.h:1479:31
	str	r0, [r1]
.Ltmp44:
	.loc	8 1482 1 is_stmt 1              @ ../../Library/CMSIS/Include\core_armv8mbl.h:1482:1
	bx	lr
.Ltmp45:
	.p2align	2
@ %bb.1:
	.loc	8 0 1 is_stmt 0                 @ ../../Library/CMSIS/Include\core_armv8mbl.h:0:1
__arm_cp.12_0:
	.long	3758157088                      @ 0xe000ed20
.Lcpi_end35:
	.size	__arm_cp.12_0, .Lcpi_end35-__arm_cp.12_0
.Lfunc_end12:
	.size	__NVIC_SetPriority, .Lfunc_end12-__NVIC_SetPriority
	.cfi_endproc
	.cantunwind
	.fnend
                                        @ -- End function
	.type	.Lstr.12,%object                @ @str.12
	.section	.rodata.str1.1,"aMS",%progbits,1
.Lstr.12:
	.asciz	"+---------------------------------------------+"
	.size	.Lstr.12, 48

	.type	__ARM_use_no_argv,%object       @ @__ARM_use_no_argv
	.section	.ARM.use_no_argv,"aw",%progbits
	.globl	__ARM_use_no_argv
	.p2align	2
__ARM_use_no_argv:
	.long	1                               @ 0x1
	.size	__ARM_use_no_argv, 4

	.globl	_printf_percent
	.globl	_printf_d
	.globl	_printf_int_dec
	.globl	__ARM_use_no_argv
	.hidden	_printf_percent
	.hidden	_printf_d
	.hidden	_printf_int_dec
	.section	".note.GNU-stack","",%progbits
	.eabi_attribute	30, 1	@ Tag_ABI_optimization_goals
	.ARM_attribute	16, 1	@ Tag_AV_eba