	.text
	.syntax unified
	.eabi_attribute	67, "2.09"	@ Tag_conformance
	.cpu	cortex-m23
	.eabi_attribute	6, 16	@ Tag_CPU_arch
	.eabi_attribute	7, 77	@ Tag_CPU_arch_profile
	.eabi_attribute	8, 0	@ Tag_ARM_ISA_use
	.eabi_attribute	9, 3	@ Tag_THUMB_ISA_use
	.eabi_attribute	34, 0	@ Tag_CPU_unaligned_access
	.eabi_attribute	17, 1	@ Tag_ABI_PCS_GOT_use
	.eabi_attribute	20, 2	@ Tag_ABI_FP_denormal
	.eabi_attribute	21, 0	@ Tag_ABI_FP_exceptions
	.eabi_attribute	23, 1	@ Tag_ABI_FP_number_model
	.eabi_attribute	24, 1	@ Tag_ABI_align_needed
	.eabi_attribute	25, 1	@ Tag_ABI_align_preserved
	.eabi_attribute	38, 1	@ Tag_ABI_FP_16bit_format
	.eabi_attribute	18, 2	@ Tag_ABI_PCS_wchar_t
	.eabi_attribute	26, 1	@ Tag_ABI_enum_size
	.eabi_attribute	14, 0	@ Tag_ABI_PCS_R9_use
	.file	"nsc.c"
	.file	1 "C:\\" "Keil_v5\\ARM\\ARMCLANG\\Bin\\..\\include\\stdint.h"
	.section	.text.Secure_PA11_LED_On,"ax",%progbits
	.hidden	Secure_PA11_LED_On              @ -- Begin function Secure_PA11_LED_On
	.globl	Secure_PA11_LED_On
	.p2align	2
	.type	Secure_PA11_LED_On,%function
	.code	16                              @ @Secure_PA11_LED_On
	.thumb_func
	.globl	__acle_se_Secure_PA11_LED_On
	.type	__acle_se_Secure_PA11_LED_On,%function
__acle_se_Secure_PA11_LED_On:
Secure_PA11_LED_On:
.Lfunc_begin0:
	.file	2 "C:\\Users\\shw26\\OneDrive\\Desktop\\2021\\2021-1\\\354\272\241\354\212\244\355\206\244\353\224\224\354\236\220\354\235\2702\\Nuvoton\\M2351_BSP_v3.00.004\\M2351Series_BSP_CMSIS_V3.00.004\\MyProject\\I2C_MAX30102" "nsc.c"
	.loc	2 23 0                          @ nsc.c:23:0
	.fnstart
	.cfi_sections .debug_frame
	.cfi_startproc
@ %bb.0:
	@DEBUG_VALUE: Secure_PA11_LED_On:num <- $r0
	.save	{r7, lr}
	push	{r7, lr}
	.cfi_def_cfa_offset 8
	.cfi_offset lr, -4
	.cfi_offset r7, -8
.Ltmp0:
	.loc	2 24 5 prologue_end             @ nsc.c:24:5
	adr	r0, .LCPI0_0
.Ltmp1:
	@DEBUG_VALUE: Secure_PA11_LED_On:num <- [DW_OP_LLVM_entry_value 1] $r0
	bl	puts
	ldr	r1, __arm_cp.0_1
	movs	r0, #0
	.loc	2 25 10                         @ nsc.c:25:10
	str	r0, [r1]
	.loc	2 26 5                          @ nsc.c:26:5
	pop	{r7}
	pop	{r1}
	mov	lr, r1
	mov	r1, lr
	mov	r2, lr
	mov	r3, lr
	mov	r12, lr
	msr	apsr, lr
	bxns	lr
.Ltmp2:
	.p2align	2
@ %bb.1:
	.loc	2 0 5 is_stmt 0                 @ nsc.c:0:5
.LCPI0_0:
.Lstr:
	.asciz	"Secure PA11 LED On call by secure\000\000"
__arm_cp.0_1:
	.long	1073760300                      @ 0x4000482c
.Lcpi_end0:
	.size	__arm_cp.0_1, .Lcpi_end0-__arm_cp.0_1
.Lfunc_end0:
	.size	Secure_PA11_LED_On, .Lfunc_end0-Secure_PA11_LED_On
	.cfi_endproc
	.cantunwind
	.fnend
                                        @ -- End function
	.section	.text.Secure_PA11_LED_Off,"ax",%progbits
	.hidden	Secure_PA11_LED_Off             @ -- Begin function Secure_PA11_LED_Off
	.globl	Secure_PA11_LED_Off
	.p2align	2
	.type	Secure_PA11_LED_Off,%function
	.code	16                              @ @Secure_PA11_LED_Off
	.thumb_func
	.globl	__acle_se_Secure_PA11_LED_Off
	.type	__acle_se_Secure_PA11_LED_Off,%function
__acle_se_Secure_PA11_LED_Off:
Secure_PA11_LED_Off:
.Lfunc_begin1:
	.loc	2 31 0 is_stmt 1                @ nsc.c:31:0
	.fnstart
	.cfi_startproc
@ %bb.0:
	@DEBUG_VALUE: Secure_PA11_LED_Off:num <- $r0
	.save	{r7, lr}
	push	{r7, lr}
	.cfi_def_cfa_offset 8
	.cfi_offset lr, -4
	.cfi_offset r7, -8
.Ltmp3:
	.loc	2 32 5 prologue_end             @ nsc.c:32:5
	adr	r0, .LCPI1_0
.Ltmp4:
	@DEBUG_VALUE: Secure_PA11_LED_Off:num <- [DW_OP_LLVM_entry_value 1] $r0
	bl	puts
	ldr	r1, __arm_cp.1_1
	movs	r0, #1
	.loc	2 33 10                         @ nsc.c:33:10
	str	r0, [r1]
	.loc	2 34 5                          @ nsc.c:34:5
	pop	{r7}
	pop	{r1}
	mov	lr, r1
	mov	r1, lr
	mov	r2, lr
	mov	r3, lr
	mov	r12, lr
	msr	apsr, lr
	bxns	lr
.Ltmp5:
	.p2align	2
@ %bb.1:
	.loc	2 0 5 is_stmt 0                 @ nsc.c:0:5
.LCPI1_0:
.Lstr.7:
	.asciz	"Secure PA11 LED Off call by secure\000"
__arm_cp.1_1:
	.long	1073760300                      @ 0x4000482c
.Lcpi_end1:
	.size	__arm_cp.1_1, .Lcpi_end1-__arm_cp.1_1
.Lfunc_end1:
	.size	Secure_PA11_LED_Off, .Lfunc_end1-Secure_PA11_LED_Off
	.cfi_endproc
	.cantunwind
	.fnend
                                        @ -- End function
	.section	.text.Secure_PA12_LED_On,"ax",%progbits
	.hidden	Secure_PA12_LED_On              @ -- Begin function Secure_PA12_LED_On
	.globl	Secure_PA12_LED_On
	.p2align	2
	.type	Secure_PA12_LED_On,%function
	.code	16                              @ @Secure_PA12_LED_On
	.thumb_func
	.globl	__acle_se_Secure_PA12_LED_On
	.type	__acle_se_Secure_PA12_LED_On,%function
__acle_se_Secure_PA12_LED_On:
Secure_PA12_LED_On:
.Lfunc_begin2:
	.loc	2 39 0 is_stmt 1                @ nsc.c:39:0
	.fnstart
	.cfi_startproc
@ %bb.0:
	@DEBUG_VALUE: Secure_PA12_LED_On:num <- $r0
	.save	{r7, lr}
	push	{r7, lr}
	.cfi_def_cfa_offset 8
	.cfi_offset lr, -4
	.cfi_offset r7, -8
.Ltmp6:
	.loc	2 40 5 prologue_end             @ nsc.c:40:5
	adr	r0, .LCPI2_0
.Ltmp7:
	@DEBUG_VALUE: Secure_PA12_LED_On:num <- [DW_OP_LLVM_entry_value 1] $r0
	bl	puts
	ldr	r1, __arm_cp.2_1
	movs	r0, #0
	.loc	2 41 10                         @ nsc.c:41:10
	str	r0, [r1]
	.loc	2 42 5                          @ nsc.c:42:5
	pop	{r7}
	pop	{r1}
	mov	lr, r1
	mov	r1, lr
	mov	r2, lr
	mov	r3, lr
	mov	r12, lr
	msr	apsr, lr
	bxns	lr
.Ltmp8:
	.p2align	2
@ %bb.1:
	.loc	2 0 5 is_stmt 0                 @ nsc.c:0:5
.LCPI2_0:
.Lstr.8:
	.asciz	"Secure PA12 LED On call by secure\000\000"
__arm_cp.2_1:
	.long	1073760304                      @ 0x40004830
.Lcpi_end2:
	.size	__arm_cp.2_1, .Lcpi_end2-__arm_cp.2_1
.Lfunc_end2:
	.size	Secure_PA12_LED_On, .Lfunc_end2-Secure_PA12_LED_On
	.cfi_endproc
	.cantunwind
	.fnend
                                        @ -- End function
	.section	.text.Secure_PA12_LED_Off,"ax",%progbits
	.hidden	Secure_PA12_LED_Off             @ -- Begin function Secure_PA12_LED_Off
	.globl	Secure_PA12_LED_Off
	.p2align	2
	.type	Secure_PA12_LED_Off,%function
	.code	16                              @ @Secure_PA12_LED_Off
	.thumb_func
	.globl	__acle_se_Secure_PA12_LED_Off
	.type	__acle_se_Secure_PA12_LED_Off,%function
__acle_se_Secure_PA12_LED_Off:
Secure_PA12_LED_Off:
.Lfunc_begin3:
	.loc	2 47 0 is_stmt 1                @ nsc.c:47:0
	.fnstart
	.cfi_startproc
@ %bb.0:
	@DEBUG_VALUE: Secure_PA12_LED_Off:num <- $r0
	.save	{r7, lr}
	push	{r7, lr}
	.cfi_def_cfa_offset 8
	.cfi_offset lr, -4
	.cfi_offset r7, -8
.Ltmp9:
	.loc	2 48 5 prologue_end             @ nsc.c:48:5
	adr	r0, .LCPI3_0
.Ltmp10:
	@DEBUG_VALUE: Secure_PA12_LED_Off:num <- [DW_OP_LLVM_entry_value 1] $r0
	bl	puts
	ldr	r1, __arm_cp.3_1
	movs	r0, #1
	.loc	2 49 10                         @ nsc.c:49:10
	str	r0, [r1]
	.loc	2 50 5                          @ nsc.c:50:5
	pop	{r7}
	pop	{r1}
	mov	lr, r1
	mov	r1, lr
	mov	r2, lr
	mov	r3, lr
	mov	r12, lr
	msr	apsr, lr
	bxns	lr
.Ltmp11:
	.p2align	2
@ %bb.1:
	.loc	2 0 5 is_stmt 0                 @ nsc.c:0:5
.LCPI3_0:
.Lstr.9:
	.asciz	"Secure PA12 LED Off call by secure\000"
__arm_cp.3_1:
	.long	1073760304                      @ 0x40004830
.Lcpi_end3:
	.size	__arm_cp.3_1, .Lcpi_end3-__arm_cp.3_1
.Lfunc_end3:
	.size	Secure_PA12_LED_Off, .Lfunc_end3-Secure_PA12_LED_Off
	.cfi_endproc
	.cantunwind
	.fnend
                                        @ -- End function
	.section	.text.Secure_PA13_LED_On,"ax",%progbits
	.hidden	Secure_PA13_LED_On              @ -- Begin function Secure_PA13_LED_On
	.globl	Secure_PA13_LED_On
	.p2align	2
	.type	Secure_PA13_LED_On,%function
	.code	16                              @ @Secure_PA13_LED_On
	.thumb_func
	.globl	__acle_se_Secure_PA13_LED_On
	.type	__acle_se_Secure_PA13_LED_On,%function
__acle_se_Secure_PA13_LED_On:
Secure_PA13_LED_On:
.Lfunc_begin4:
	.loc	2 55 0 is_stmt 1                @ nsc.c:55:0
	.fnstart
	.cfi_startproc
@ %bb.0:
	@DEBUG_VALUE: Secure_PA13_LED_On:num <- $r0
	.save	{r7, lr}
	push	{r7, lr}
	.cfi_def_cfa_offset 8
	.cfi_offset lr, -4
	.cfi_offset r7, -8
.Ltmp12:
	.loc	2 56 5 prologue_end             @ nsc.c:56:5
	adr	r0, .LCPI4_0
.Ltmp13:
	@DEBUG_VALUE: Secure_PA13_LED_On:num <- [DW_OP_LLVM_entry_value 1] $r0
	bl	puts
	ldr	r1, __arm_cp.4_1
	movs	r0, #0
	.loc	2 57 10                         @ nsc.c:57:10
	str	r0, [r1]
	.loc	2 58 5                          @ nsc.c:58:5
	pop	{r7}
	pop	{r1}
	mov	lr, r1
	mov	r1, lr
	mov	r2, lr
	mov	r3, lr
	mov	r12, lr
	msr	apsr, lr
	bxns	lr
.Ltmp14:
	.p2align	2
@ %bb.1:
	.loc	2 0 5 is_stmt 0                 @ nsc.c:0:5
.LCPI4_0:
.Lstr.10:
	.asciz	"Secure PA13 LED On call by secure\000\000"
__arm_cp.4_1:
	.long	1073760308                      @ 0x40004834
.Lcpi_end4:
	.size	__arm_cp.4_1, .Lcpi_end4-__arm_cp.4_1
.Lfunc_end4:
	.size	Secure_PA13_LED_On, .Lfunc_end4-Secure_PA13_LED_On
	.cfi_endproc
	.cantunwind
	.fnend
                                        @ -- End function
	.section	.text.Secure_PA13_LED_Off,"ax",%progbits
	.hidden	Secure_PA13_LED_Off             @ -- Begin function Secure_PA13_LED_Off
	.globl	Secure_PA13_LED_Off
	.p2align	2
	.type	Secure_PA13_LED_Off,%function
	.code	16                              @ @Secure_PA13_LED_Off
	.thumb_func
	.globl	__acle_se_Secure_PA13_LED_Off
	.type	__acle_se_Secure_PA13_LED_Off,%function
__acle_se_Secure_PA13_LED_Off:
Secure_PA13_LED_Off:
.Lfunc_begin5:
	.loc	2 63 0 is_stmt 1                @ nsc.c:63:0
	.fnstart
	.cfi_startproc
@ %bb.0:
	@DEBUG_VALUE: Secure_PA13_LED_Off:num <- $r0
	.save	{r7, lr}
	push	{r7, lr}
	.cfi_def_cfa_offset 8
	.cfi_offset lr, -4
	.cfi_offset r7, -8
.Ltmp15:
	.loc	2 64 5 prologue_end             @ nsc.c:64:5
	adr	r0, .LCPI5_0
.Ltmp16:
	@DEBUG_VALUE: Secure_PA13_LED_Off:num <- [DW_OP_LLVM_entry_value 1] $r0
	bl	puts
	ldr	r1, __arm_cp.5_1
	movs	r0, #1
	.loc	2 65 10                         @ nsc.c:65:10
	str	r0, [r1]
	.loc	2 66 5                          @ nsc.c:66:5
	pop	{r7}
	pop	{r1}
	mov	lr, r1
	mov	r1, lr
	mov	r2, lr
	mov	r3, lr
	mov	r12, lr
	msr	apsr, lr
	bxns	lr
.Ltmp17:
	.p2align	2
@ %bb.1:
	.loc	2 0 5 is_stmt 0                 @ nsc.c:0:5
.LCPI5_0:
.Lstr.11:
	.asciz	"Secure PA13 LED Off call by secure\000"
__arm_cp.5_1:
	.long	1073760308                      @ 0x40004834
.Lcpi_end5:
	.size	__arm_cp.5_1, .Lcpi_end5-__arm_cp.5_1
.Lfunc_end5:
	.size	Secure_PA13_LED_Off, .Lfunc_end5-Secure_PA13_LED_Off
	.cfi_endproc
	.cantunwind
	.fnend
                                        @ -- End function
	.section	.text.GetSystemCoreClock,"ax",%progbits
	.hidden	GetSystemCoreClock              @ -- Begin function GetSystemCoreClock
	.globl	GetSystemCoreClock
	.p2align	2
	.type	GetSystemCoreClock,%function
	.code	16                              @ @GetSystemCoreClock
	.thumb_func
	.globl	__acle_se_GetSystemCoreClock
	.type	__acle_se_GetSystemCoreClock,%function
__acle_se_GetSystemCoreClock:
GetSystemCoreClock:
.Lfunc_begin6:
	.loc	2 71 0 is_stmt 1                @ nsc.c:71:0
	.fnstart
	.cfi_startproc
@ %bb.0:
	.loc	2 73 12 prologue_end            @ nsc.c:73:12
	ldr	r0, __arm_cp.6_0
	ldr	r0, [r0]
	.loc	2 73 5 is_stmt 0                @ nsc.c:73:5
	mov	r1, lr
	mov	r2, lr
	mov	r3, lr
	mov	r12, lr
	msr	apsr, lr
	bxns	lr
.Ltmp18:
	.p2align	2
@ %bb.1:
	.loc	2 0 5                           @ nsc.c:0:5
__arm_cp.6_0:
	.long	SystemCoreClock
.Lcpi_end6:
	.size	__arm_cp.6_0, .Lcpi_end6-__arm_cp.6_0
.Lfunc_end6:
	.size	GetSystemCoreClock, .Lfunc_end6-GetSystemCoreClock
	.cfi_endproc
	.cantunwind
	.fnend
                                        @ -- End function
	.section	.text.Print_Pulse,"ax",%progbits
	.hidden	Print_Pulse                     @ -- Begin function Print_Pulse
	.globl	Print_Pulse
	.p2align	2
	.type	Print_Pulse,%function
	.code	16                              @ @Print_Pulse
	.thumb_func
	.globl	__acle_se_Print_Pulse
	.type	__acle_se_Print_Pulse,%function
__acle_se_Print_Pulse:
Print_Pulse:
.Lfunc_begin7:
	.loc	2 79 0 is_stmt 1                @ nsc.c:79:0
	.fnstart
	.cfi_startproc
@ %bb.0:
	.save	{r7, lr}
	push	{r7, lr}
	.cfi_def_cfa_offset 8
	.cfi_offset lr, -4
	.cfi_offset r7, -8
.Ltmp19:
	.loc	2 80 38 prologue_end            @ nsc.c:80:38
	ldr	r0, __arm_cp.7_0
	ldr	r1, [r0]
	.loc	2 80 46 is_stmt 0               @ nsc.c:80:46
	ldr	r2, [r0]
	.loc	2 80 3                          @ nsc.c:80:3
	adr	r0, .LCPI7_1
	bl	__2printf
	.loc	2 81 1 is_stmt 1                @ nsc.c:81:1
	pop	{r7}
	pop	{r0}
	mov	lr, r0
	mov	r0, lr
	mov	r1, lr
	mov	r2, lr
	mov	r3, lr
	mov	r12, lr
	msr	apsr, lr
	bxns	lr
.Ltmp20:
	.p2align	2
@ %bb.1:
	.loc	2 0 1 is_stmt 0                 @ nsc.c:0:1
__arm_cp.7_0:
	.long	hr_val
.Lcpi_end7:
	.size	__arm_cp.7_0, .Lcpi_end7-__arm_cp.7_0
.LCPI7_1:
.L.str.6:
	.asciz	"HR_val : %#08x(%d),\t \n\000"
.Lfunc_end7:
	.size	Print_Pulse, .Lfunc_end7-Print_Pulse
	.cfi_endproc
	.cantunwind
	.fnend
                                        @ -- End function
	.section	.text.Get_Pulse,"ax",%progbits
	.hidden	Get_Pulse                       @ -- Begin function Get_Pulse
	.globl	Get_Pulse
	.p2align	2
	.type	Get_Pulse,%function
	.code	16                              @ @Get_Pulse
	.thumb_func
	.globl	__acle_se_Get_Pulse
	.type	__acle_se_Get_Pulse,%function
__acle_se_Get_Pulse:
Get_Pulse:
.Lfunc_begin8:
	.loc	2 85 0 is_stmt 1                @ nsc.c:85:0
	.fnstart
	.cfi_startproc
@ %bb.0:
	.loc	2 86 10 prologue_end            @ nsc.c:86:10
	ldr	r0, __arm_cp.8_0
	ldr	r0, [r0]
	.loc	2 86 3 is_stmt 0                @ nsc.c:86:3
	mov	r1, lr
	mov	r2, lr
	mov	r3, lr
	mov	r12, lr
	msr	apsr, lr
	bxns	lr
.Ltmp21:
	.p2align	2
@ %bb.1:
	.loc	2 0 3                           @ nsc.c:0:3
__arm_cp.8_0:
	.long	hr_val
.Lcpi_end8:
	.size	__arm_cp.8_0, .Lcpi_end8-__arm_cp.8_0
.Lfunc_end8:
	.size	Get_Pulse, .Lfunc_end8-Get_Pulse
	.cfi_endproc
	.cantunwind
	.fnend
                                        @ -- End function
	.globl	_printf_percent
	.globl	_printf_flags
	.globl	_printf_widthprec
	.globl	_printf_pre_padding
	.globl	_printf_x
	.globl	_printf_d
	.globl	_printf_int_dec
	.globl	_printf_longlong_hex
	.hidden	_printf_percent
	.hidden	_printf_flags
	.hidden	_printf_widthprec
	.hidden	_printf_pre_padding
	.hidden	_printf_x
	.hidden	_printf_d
	.hidden	_printf_int_dec
	.hidden	_printf_longlong_hex
	.section	".note.GNU-stack","",%progbits
	.eabi_attribute	30, 1	@ Tag_ABI_optimization_goals
	.ARM_attribute	16, 1	@ Tag_AV_eba