	.text
	.syntax unified
	.eabi_attribute	67, "2.09"	@ Tag_conformance
	.cpu	cortex-m23
	.eabi_attribute	6, 16	@ Tag_CPU_arch
	.eabi_attribute	7, 77	@ Tag_CPU_arch_profile
	.eabi_attribute	8, 0	@ Tag_ARM_ISA_use
	.eabi_attribute	9, 3	@ Tag_THUMB_ISA_use
	.eabi_attribute	34, 0	@ Tag_CPU_unaligned_access
	.eabi_attribute	17, 1	@ Tag_ABI_PCS_GOT_use
	.eabi_attribute	20, 2	@ Tag_ABI_FP_denormal
	.eabi_attribute	21, 0	@ Tag_ABI_FP_exceptions
	.eabi_attribute	23, 1	@ Tag_ABI_FP_number_model
	.eabi_attribute	24, 1	@ Tag_ABI_align_needed
	.eabi_attribute	25, 1	@ Tag_ABI_align_preserved
	.eabi_attribute	38, 1	@ Tag_ABI_FP_16bit_format
	.eabi_attribute	18, 2	@ Tag_ABI_PCS_wchar_t
	.eabi_attribute	26, 1	@ Tag_ABI_enum_size
	.eabi_attribute	14, 0	@ Tag_ABI_PCS_R9_use
	.file	"retarget.c"
	.file	1 "C:\\Users\\shw26\\OneDrive\\Desktop\\2021\\2021-1\\\354\272\241\354\212\244\355\206\244\353\224\224\354\236\220\354\235\2702\\Nuvoton\\M2351_BSP_v3.00.004\\M2351Series_BSP_CMSIS_V3.00.004\\MyProject\\I2C_MAX30102" "../../Library/StdDriver/src/retarget.c"
	.file	2 "C:\\" "Keil_v5\\ARM\\ARMCLANG\\Bin\\..\\include\\stdint.h"
	.file	3 "C:\\" "Keil_v5\\ARM\\ARMCLANG\\Bin\\..\\include\\stdio.h"
	.file	4 "C:\\Users\\shw26\\OneDrive\\Desktop\\2021\\2021-1\\\354\272\241\354\212\244\355\206\244\353\224\224\354\236\220\354\235\2702\\Nuvoton\\M2351_BSP_v3.00.004\\M2351Series_BSP_CMSIS_V3.00.004\\MyProject\\I2C_MAX30102" "../../Library/Device/Nuvoton/M2351/Include\\M2351.h"
	.file	5 "C:\\Users\\shw26\\OneDrive\\Desktop\\2021\\2021-1\\\354\272\241\354\212\244\355\206\244\353\224\224\354\236\220\354\235\2702\\Nuvoton\\M2351_BSP_v3.00.004\\M2351Series_BSP_CMSIS_V3.00.004\\MyProject\\I2C_MAX30102" "../../Library/Device/Nuvoton/M2351/Include/scu_reg.h"
	.file	6 "C:\\Users\\shw26\\OneDrive\\Desktop\\2021\\2021-1\\\354\272\241\354\212\244\355\206\244\353\224\224\354\236\220\354\235\2702\\Nuvoton\\M2351_BSP_v3.00.004\\M2351Series_BSP_CMSIS_V3.00.004\\MyProject\\I2C_MAX30102" "../../Library/Device/Nuvoton/M2351/Include/uart_reg.h"
	.section	.text.ProcessHardFault,"ax",%progbits
	.hidden	ProcessHardFault                @ -- Begin function ProcessHardFault
	.weak	ProcessHardFault
	.p2align	2
	.type	ProcessHardFault,%function
	.code	16                              @ @ProcessHardFault
	.thumb_func
ProcessHardFault:
.Lfunc_begin0:
	.loc	1 268 0                         @ ../../Library/StdDriver/src/retarget.c:268:0
	.fnstart
	.cfi_sections .debug_frame
	.cfi_startproc
@ %bb.0:
	@DEBUG_VALUE: ProcessHardFault:lr <- $r0
	@DEBUG_VALUE: ProcessHardFault:msp <- $r1
	@DEBUG_VALUE: ProcessHardFault:psp <- $r2
	.save	{r4, r5, r6, r7, lr}
	push	{r4, r5, r6, r7, lr}
	.cfi_def_cfa_offset 20
	.cfi_offset lr, -4
	.cfi_offset r7, -8
	.cfi_offset r6, -12
	.cfi_offset r5, -16
	.cfi_offset r4, -20
	.pad	#20
	sub	sp, #20
	.cfi_def_cfa_offset 40
	mov	r4, r1
	movs	r1, #4
.Ltmp0:
	@DEBUG_VALUE: ProcessHardFault:msp <- [DW_OP_LLVM_entry_value 1] $r1
	@DEBUG_VALUE: ProcessHardFault:secure <- undef
	@DEBUG_VALUE: ProcessHardFault:psp <- $r2
	@DEBUG_VALUE: ProcessHardFault:msp <- $r4
	@DEBUG_VALUE: ProcessHardFault:lr <- $r0
	.loc	1 0 0 prologue_end              @ ../../Library/StdDriver/src/retarget.c:0:0
	ands	r1, r0
	movs	r7, #64
.Ltmp1:
	.loc	1 280 18                        @ ../../Library/StdDriver/src/retarget.c:280:18
	ands	r7, r0
	.loc	1 281 8                         @ ../../Library/StdDriver/src/retarget.c:281:8
	bne	.LBB0_3
.Ltmp2:
@ %bb.1:
	@DEBUG_VALUE: ProcessHardFault:msp <- $r4
	@DEBUG_VALUE: ProcessHardFault:psp <- $r2
	@DEBUG_VALUE: ProcessHardFault:lr <- $r0
	.loc	1 298 12                        @ ../../Library/StdDriver/src/retarget.c:298:12
	cbnz	r1, .LBB0_5
.Ltmp3:
@ %bb.2:
	@DEBUG_VALUE: ProcessHardFault:msp <- $r4
	@DEBUG_VALUE: ProcessHardFault:psp <- $r2
	@DEBUG_VALUE: ProcessHardFault:lr <- $r0
	.file	7 "C:\\Users\\shw26\\OneDrive\\Desktop\\2021\\2021-1\\\354\272\241\354\212\244\355\206\244\353\224\224\354\236\220\354\235\2702\\Nuvoton\\M2351_BSP_v3.00.004\\M2351Series_BSP_CMSIS_V3.00.004\\MyProject\\I2C_MAX30102" "../../Library/CMSIS/Include/cmsis_armclang.h"
	.loc	7 306 3                         @ ../../Library/CMSIS/Include/cmsis_armclang.h:306:3
	@APP
	mrs	r4, msp_ns
	@NO_APP
.Ltmp4:
	@DEBUG_VALUE: __TZ_get_MSP_NS:result <- $r4
	@DEBUG_VALUE: ProcessHardFault:sp <- $r4
	.loc	7 0 3 is_stmt 0                 @ ../../Library/CMSIS/Include/cmsis_armclang.h:0:3
	b	.LBB0_6
.Ltmp5:
.LBB0_3:
	@DEBUG_VALUE: ProcessHardFault:msp <- $r4
	@DEBUG_VALUE: ProcessHardFault:psp <- $r2
	@DEBUG_VALUE: ProcessHardFault:lr <- $r0
	.loc	1 284 12 is_stmt 1              @ ../../Library/StdDriver/src/retarget.c:284:12
	cbz	r1, .LBB0_6
.Ltmp6:
@ %bb.4:
	@DEBUG_VALUE: ProcessHardFault:msp <- $r4
	@DEBUG_VALUE: ProcessHardFault:psp <- $r2
	@DEBUG_VALUE: ProcessHardFault:lr <- $r0
	mov	r4, r2
.Ltmp7:
	@DEBUG_VALUE: ProcessHardFault:psp <- $r4
	.loc	1 0 12 is_stmt 0                @ ../../Library/StdDriver/src/retarget.c:0:12
	b	.LBB0_6
.Ltmp8:
.LBB0_5:
	@DEBUG_VALUE: ProcessHardFault:msp <- $r4
	@DEBUG_VALUE: ProcessHardFault:psp <- $r2
	@DEBUG_VALUE: ProcessHardFault:lr <- $r0
	.loc	7 252 3 is_stmt 1               @ ../../Library/CMSIS/Include/cmsis_armclang.h:252:3
	@APP
	mrs	r4, psp_ns
	@NO_APP
.Ltmp9:
	@DEBUG_VALUE: ProcessHardFault:sp <- $r4
	@DEBUG_VALUE: __TZ_get_PSP_NS:result <- $r4
.LBB0_6:
	@DEBUG_VALUE: ProcessHardFault:lr <- $r0
	.loc	1 317 5                         @ ../../Library/StdDriver/src/retarget.c:317:5
	ldr	r0, __arm_cp.0_0
.Ltmp10:
	@DEBUG_VALUE: ProcessHardFault:lr <- [DW_OP_LLVM_entry_value 1] $r0
	bl	puts
	.loc	1 318 5                         @ ../../Library/StdDriver/src/retarget.c:318:5
	adr	r0, .LCPI0_1
	bl	puts
	movs	r6, #1
	lsls	r5, r6, #28
.Ltmp11:
	@DEBUG_VALUE: ProcessHardFault:sp <- $r4
	.loc	1 320 12                        @ ../../Library/StdDriver/src/retarget.c:320:12
	ldr	r1, [r4, #24]
.Ltmp12:
	@DEBUG_VALUE: ProcessHardFault:inst <- undef
	@DEBUG_VALUE: ProcessHardFault:eFlag <- 0
	@DEBUG_VALUE: ProcessHardFault:addr <- $r1
	.loc	1 0 12 is_stmt 0                @ ../../Library/StdDriver/src/retarget.c:0:12
	mov	r0, r1
	ands	r0, r5
.Ltmp13:
	.loc	1 323 18 is_stmt 1              @ ../../Library/StdDriver/src/retarget.c:323:18
	adds	r0, r0, r7
.Ltmp14:
	.loc	1 321 12                        @ ../../Library/StdDriver/src/retarget.c:321:12
	ldrh	r2, [r1]
.Ltmp15:
	.loc	1 323 18                        @ ../../Library/StdDriver/src/retarget.c:323:18
	str	r7, [sp, #16]                   @ 4-byte Spill
	beq	.LBB0_9
.Ltmp16:
@ %bb.7:
	@DEBUG_VALUE: ProcessHardFault:sp <- $r4
	@DEBUG_VALUE: ProcessHardFault:addr <- $r1
	@DEBUG_VALUE: ProcessHardFault:eFlag <- 0
	@DEBUG_VALUE: ProcessHardFault:lr <- [DW_OP_LLVM_entry_value 1] $r0
	.loc	1 0 18 is_stmt 0                @ ../../Library/StdDriver/src/retarget.c:0:18
	ldr	r0, __arm_cp.0_2
	.loc	1 329 14 is_stmt 1              @ ../../Library/StdDriver/src/retarget.c:329:14
	cmp	r2, r0
	bne	.LBB0_22
.Ltmp17:
@ %bb.8:
	@DEBUG_VALUE: ProcessHardFault:sp <- $r4
	@DEBUG_VALUE: ProcessHardFault:addr <- $r1
	@DEBUG_VALUE: ProcessHardFault:eFlag <- 0
	@DEBUG_VALUE: ProcessHardFault:lr <- [DW_OP_LLVM_entry_value 1] $r0
	.loc	1 331 9                         @ ../../Library/StdDriver/src/retarget.c:331:9
	adr	r0, .LCPI0_8
	b	.LBB0_10
.Ltmp18:
.LBB0_9:
	@DEBUG_VALUE: ProcessHardFault:sp <- $r4
	@DEBUG_VALUE: ProcessHardFault:addr <- $r1
	@DEBUG_VALUE: ProcessHardFault:eFlag <- 0
	@DEBUG_VALUE: ProcessHardFault:lr <- [DW_OP_LLVM_entry_value 1] $r0
	.loc	1 325 9                         @ ../../Library/StdDriver/src/retarget.c:325:9
	ldr	r0, __arm_cp.0_9
	bl	__2printf
.Ltmp19:
	.loc	1 326 9                         @ ../../Library/StdDriver/src/retarget.c:326:9
	ldr	r0, __arm_cp.0_10
.Ltmp20:
.LBB0_10:
	@DEBUG_VALUE: ProcessHardFault:sp <- $r4
	@DEBUG_VALUE: ProcessHardFault:eFlag <- 0
	@DEBUG_VALUE: ProcessHardFault:lr <- [DW_OP_LLVM_entry_value 1] $r0
	.loc	1 0 0 is_stmt 0                 @ ../../Library/StdDriver/src/retarget.c:0:0
	bl	puts
.Ltmp21:
.LBB0_11:
	@DEBUG_VALUE: ProcessHardFault:sp <- $r4
	@DEBUG_VALUE: ProcessHardFault:lr <- [DW_OP_LLVM_entry_value 1] $r0
	movs	r6, #0
                                        @ implicit-def: $r7
.Ltmp22:
.LBB0_12:
	@DEBUG_VALUE: ProcessHardFault:sp <- $r4
	@DEBUG_VALUE: ProcessHardFault:lr <- [DW_OP_LLVM_entry_value 1] $r0
	@DEBUG_VALUE: ProcessHardFault:eFlag <- undef
	@DEBUG_VALUE: ProcessHardFault:taddr <- $r7
	.loc	1 417 8 is_stmt 1               @ ../../Library/StdDriver/src/retarget.c:417:8
	cmp	r6, #0
	bne	.LBB0_13
	b	.LBB0_58
.Ltmp23:
.LBB0_13:
	@DEBUG_VALUE: ProcessHardFault:taddr <- $r7
	@DEBUG_VALUE: ProcessHardFault:sp <- $r4
	@DEBUG_VALUE: ProcessHardFault:lr <- [DW_OP_LLVM_entry_value 1] $r0
	.loc	1 420 12                        @ ../../Library/StdDriver/src/retarget.c:420:12
	ldr	r0, [sp, #16]                   @ 4-byte Reload
	cbnz	r0, .LBB0_25
.Ltmp24:
@ %bb.14:
	@DEBUG_VALUE: ProcessHardFault:taddr <- $r7
	@DEBUG_VALUE: ProcessHardFault:sp <- $r4
	@DEBUG_VALUE: ProcessHardFault:lr <- [DW_OP_LLVM_entry_value 1] $r0
	.loc	1 0 12 is_stmt 0                @ ../../Library/StdDriver/src/retarget.c:0:12
	ldr	r0, __arm_cp.0_11
	movs	r1, #70
	b	.LBB0_16
.Ltmp25:
.LBB0_15:                               @   in Loop: Header=BB0_16 Depth=1
	@DEBUG_VALUE: ProcessHardFault:taddr <- $r7
	@DEBUG_VALUE: ProcessHardFault:sp <- $r4
	@DEBUG_VALUE: ProcessHardFault:lr <- [DW_OP_LLVM_entry_value 1] $r0
	@DEBUG_VALUE: ProcessHardFault:i <- [DW_OP_plus_uconst 1, DW_OP_stack_value] undef
	.loc	1 424 22 is_stmt 1              @ ../../Library/StdDriver/src/retarget.c:424:22
	subs	r1, r1, #1
	adds	r0, #12
.Ltmp26:
	.loc	1 424 13 is_stmt 0              @ ../../Library/StdDriver/src/retarget.c:424:13
	cmp	r1, #0
	bne	.LBB0_16
	b	.LBB0_58
.Ltmp27:
.LBB0_16:                               @ =>This Inner Loop Header: Depth=1
	@DEBUG_VALUE: ProcessHardFault:taddr <- $r7
	@DEBUG_VALUE: ProcessHardFault:sp <- $r4
	@DEBUG_VALUE: ProcessHardFault:lr <- [DW_OP_LLVM_entry_value 1] $r0
	@DEBUG_VALUE: ProcessHardFault:i <- undef
	.loc	1 427 40 is_stmt 1              @ ../../Library/StdDriver/src/retarget.c:427:40
	ldr	r2, [r0, #4]
	.loc	1 427 49 is_stmt 0              @ ../../Library/StdDriver/src/retarget.c:427:49
	cmp	r7, r2
	blo	.LBB0_18
.Ltmp28:
@ %bb.17:                               @   in Loop: Header=BB0_16 Depth=1
	@DEBUG_VALUE: ProcessHardFault:taddr <- $r7
	@DEBUG_VALUE: ProcessHardFault:sp <- $r4
	@DEBUG_VALUE: ProcessHardFault:lr <- [DW_OP_LLVM_entry_value 1] $r0
	.loc	1 427 74                        @ ../../Library/StdDriver/src/retarget.c:427:74
	ldr	r3, [r0, #16]
.Ltmp29:
	.loc	1 427 20                        @ ../../Library/StdDriver/src/retarget.c:427:20
	cmp	r7, r3
	blo	.LBB0_40
.Ltmp30:
.LBB0_18:                               @   in Loop: Header=BB0_16 Depth=1
	@DEBUG_VALUE: ProcessHardFault:taddr <- $r7
	@DEBUG_VALUE: ProcessHardFault:sp <- $r4
	@DEBUG_VALUE: ProcessHardFault:lr <- [DW_OP_LLVM_entry_value 1] $r0
	.loc	1 438 48 is_stmt 1              @ ../../Library/StdDriver/src/retarget.c:438:48
	adds	r2, r2, r5
	.loc	1 438 61 is_stmt 0              @ ../../Library/StdDriver/src/retarget.c:438:61
	cmp	r7, r2
	blo	.LBB0_15
.Ltmp31:
@ %bb.19:                               @   in Loop: Header=BB0_16 Depth=1
	@DEBUG_VALUE: ProcessHardFault:taddr <- $r7
	@DEBUG_VALUE: ProcessHardFault:sp <- $r4
	@DEBUG_VALUE: ProcessHardFault:lr <- [DW_OP_LLVM_entry_value 1] $r0
	.loc	1 438 86                        @ ../../Library/StdDriver/src/retarget.c:438:86
	ldr	r2, [r0, #16]
	.loc	1 438 93                        @ ../../Library/StdDriver/src/retarget.c:438:93
	adds	r2, r2, r5
.Ltmp32:
	.loc	1 438 20                        @ ../../Library/StdDriver/src/retarget.c:438:20
	cmp	r7, r2
	bhs	.LBB0_15
.Ltmp33:
@ %bb.20:
	@DEBUG_VALUE: ProcessHardFault:taddr <- $r7
	@DEBUG_VALUE: ProcessHardFault:sp <- $r4
	@DEBUG_VALUE: ProcessHardFault:lr <- [DW_OP_LLVM_entry_value 1] $r0
	@DEBUG_VALUE: ProcessHardFault:i <- undef
	.loc	1 440 37 is_stmt 1              @ ../../Library/StdDriver/src/retarget.c:440:37
	ldrb	r1, [r0, #8]
.Ltmp34:
	@DEBUG_VALUE: ProcessHardFault:idx <- $r1
	.loc	1 0 37 is_stmt 0                @ ../../Library/StdDriver/src/retarget.c:0:37
	movs	r2, #31
	.loc	1 441 31 is_stmt 1              @ ../../Library/StdDriver/src/retarget.c:441:31
	ands	r2, r1
.Ltmp35:
	@DEBUG_VALUE: ProcessHardFault:bit <- $r2
	.loc	1 442 31                        @ ../../Library/StdDriver/src/retarget.c:442:31
	lsrs	r1, r1, #5
.Ltmp36:
	@DEBUG_VALUE: ProcessHardFault:idx <- $r1
	.loc	1 443 26                        @ ../../Library/StdDriver/src/retarget.c:443:26
	lsls	r1, r1, #2
.Ltmp37:
	.loc	1 0 26 is_stmt 0                @ ../../Library/StdDriver/src/retarget.c:0:26
	ldr	r3, __arm_cp.0_12
	.loc	1 443 26                        @ ../../Library/StdDriver/src/retarget.c:443:26
	ldr	r1, [r1, r3]
.Ltmp38:
	@DEBUG_VALUE: ProcessHardFault:s <- [DW_OP_constu 1, DW_OP_and, DW_OP_stack_value] undef
	.loc	1 444 111 is_stmt 1             @ ../../Library/StdDriver/src/retarget.c:444:111
	lsrs	r1, r2
	lsls	r1, r1, #31
	beq	.LBB0_49
.Ltmp39:
@ %bb.21:
	@DEBUG_VALUE: ProcessHardFault:taddr <- $r7
	@DEBUG_VALUE: ProcessHardFault:sp <- $r4
	@DEBUG_VALUE: ProcessHardFault:bit <- $r2
	@DEBUG_VALUE: ProcessHardFault:lr <- [DW_OP_LLVM_entry_value 1] $r0
	.loc	1 0 111 is_stmt 0               @ ../../Library/StdDriver/src/retarget.c:0:111
	ldr	r1, __arm_cp.0_14
	b	.LBB0_50
.Ltmp40:
.LBB0_22:
	@DEBUG_VALUE: ProcessHardFault:sp <- $r4
	@DEBUG_VALUE: ProcessHardFault:addr <- $r1
	@DEBUG_VALUE: ProcessHardFault:eFlag <- 0
	@DEBUG_VALUE: ProcessHardFault:lr <- [DW_OP_LLVM_entry_value 1] $r0
	.loc	1 334 19 is_stmt 1              @ ../../Library/StdDriver/src/retarget.c:334:19
	lsrs	r0, r2, #12
.Ltmp41:
	.loc	1 334 13 is_stmt 0              @ ../../Library/StdDriver/src/retarget.c:334:13
	cmp	r0, #5
	bne	.LBB0_32
.Ltmp42:
@ %bb.23:
	@DEBUG_VALUE: ProcessHardFault:sp <- $r4
	@DEBUG_VALUE: ProcessHardFault:addr <- $r1
	@DEBUG_VALUE: ProcessHardFault:eFlag <- 0
	@DEBUG_VALUE: ProcessHardFault:lr <- [DW_OP_LLVM_entry_value 1] $r0
	@DEBUG_VALUE: ProcessHardFault:eFlag <- 3
	@DEBUG_VALUE: ProcessHardFault:rm <- undef
	.loc	1 342 26 is_stmt 1              @ ../../Library/StdDriver/src/retarget.c:342:26
	lsrs	r0, r2, #4
	movs	r3, #28
	ands	r3, r0
	ldr	r7, [r4, r3]
	.loc	1 339 26                        @ ../../Library/StdDriver/src/retarget.c:339:26
	lsls	r3, r2, #26
	lsrs	r0, r3, #29
.Ltmp43:
	@DEBUG_VALUE: ProcessHardFault:rn <- $r0
	.loc	1 342 17                        @ ../../Library/StdDriver/src/retarget.c:342:17
	lsls	r3, r0, #2
	ldr	r3, [r4, r3]
	.loc	1 342 24 is_stmt 0              @ ../../Library/StdDriver/src/retarget.c:342:24
	adds	r7, r7, r3
.Ltmp44:
	@DEBUG_VALUE: ProcessHardFault:taddr <- $r7
	.loc	1 0 24                          @ ../../Library/StdDriver/src/retarget.c:0:24
	movs	r3, #7
	.loc	1 340 19 is_stmt 1              @ ../../Library/StdDriver/src/retarget.c:340:19
	ands	r3, r2
.Ltmp45:
	@DEBUG_VALUE: ProcessHardFault:tdata <- undef
	@DEBUG_VALUE: ProcessHardFault:rt <- $r3
	.loc	1 344 12                        @ ../../Library/StdDriver/src/retarget.c:344:12
	cmp	r0, r3
	bne	.LBB0_39
.Ltmp46:
@ %bb.24:
	@DEBUG_VALUE: ProcessHardFault:taddr <- $r7
	@DEBUG_VALUE: ProcessHardFault:sp <- $r4
	@DEBUG_VALUE: ProcessHardFault:rt <- $r3
	@DEBUG_VALUE: ProcessHardFault:addr <- $r1
	@DEBUG_VALUE: ProcessHardFault:rn <- $r0
	@DEBUG_VALUE: ProcessHardFault:eFlag <- 3
	@DEBUG_VALUE: ProcessHardFault:lr <- [DW_OP_LLVM_entry_value 1] $r0
	.loc	1 346 13                        @ ../../Library/StdDriver/src/retarget.c:346:13
	str	r3, [sp]
	b	.LBB0_37
.Ltmp47:
.LBB0_25:
	@DEBUG_VALUE: ProcessHardFault:taddr <- $r7
	@DEBUG_VALUE: ProcessHardFault:sp <- $r4
	@DEBUG_VALUE: ProcessHardFault:lr <- [DW_OP_LLVM_entry_value 1] $r0
	.loc	1 454 16                        @ ../../Library/StdDriver/src/retarget.c:454:16
	cmp	r7, r5
	bls	.LBB0_58
.Ltmp48:
@ %bb.26:
	@DEBUG_VALUE: ProcessHardFault:taddr <- $r7
	@DEBUG_VALUE: ProcessHardFault:sp <- $r4
	@DEBUG_VALUE: ProcessHardFault:lr <- [DW_OP_LLVM_entry_value 1] $r0
	.loc	1 0 16 is_stmt 0                @ ../../Library/StdDriver/src/retarget.c:0:16
	ldr	r0, __arm_cp.0_11
	movs	r1, #70
	b	.LBB0_28
.Ltmp49:
.LBB0_27:                               @   in Loop: Header=BB0_28 Depth=1
	@DEBUG_VALUE: ProcessHardFault:taddr <- $r7
	@DEBUG_VALUE: ProcessHardFault:sp <- $r4
	@DEBUG_VALUE: ProcessHardFault:lr <- [DW_OP_LLVM_entry_value 1] $r0
	@DEBUG_VALUE: ProcessHardFault:i <- [DW_OP_plus_uconst 1, DW_OP_stack_value] undef
	.loc	1 457 26 is_stmt 1              @ ../../Library/StdDriver/src/retarget.c:457:26
	subs	r1, r1, #1
	adds	r0, #12
.Ltmp50:
	.loc	1 457 17 is_stmt 0              @ ../../Library/StdDriver/src/retarget.c:457:17
	cmp	r1, #0
	beq	.LBB0_58
.Ltmp51:
.LBB0_28:                               @ =>This Inner Loop Header: Depth=1
	@DEBUG_VALUE: ProcessHardFault:taddr <- $r7
	@DEBUG_VALUE: ProcessHardFault:sp <- $r4
	@DEBUG_VALUE: ProcessHardFault:lr <- [DW_OP_LLVM_entry_value 1] $r0
	@DEBUG_VALUE: ProcessHardFault:i <- undef
	.loc	1 459 45 is_stmt 1              @ ../../Library/StdDriver/src/retarget.c:459:45
	ldr	r2, [r0, #4]
	.loc	1 459 52 is_stmt 0              @ ../../Library/StdDriver/src/retarget.c:459:52
	adds	r2, r2, r5
	.loc	1 459 65                        @ ../../Library/StdDriver/src/retarget.c:459:65
	cmp	r7, r2
	blo	.LBB0_27
.Ltmp52:
@ %bb.29:                               @   in Loop: Header=BB0_28 Depth=1
	@DEBUG_VALUE: ProcessHardFault:taddr <- $r7
	@DEBUG_VALUE: ProcessHardFault:sp <- $r4
	@DEBUG_VALUE: ProcessHardFault:lr <- [DW_OP_LLVM_entry_value 1] $r0
	.loc	1 459 90                        @ ../../Library/StdDriver/src/retarget.c:459:90
	ldr	r2, [r0, #16]
	.loc	1 459 97                        @ ../../Library/StdDriver/src/retarget.c:459:97
	adds	r2, r2, r5
.Ltmp53:
	.loc	1 459 24                        @ ../../Library/StdDriver/src/retarget.c:459:24
	cmp	r7, r2
	bhs	.LBB0_27
.Ltmp54:
@ %bb.30:
	@DEBUG_VALUE: ProcessHardFault:taddr <- $r7
	@DEBUG_VALUE: ProcessHardFault:sp <- $r4
	@DEBUG_VALUE: ProcessHardFault:lr <- [DW_OP_LLVM_entry_value 1] $r0
	@DEBUG_VALUE: ProcessHardFault:i <- undef
	.loc	1 461 41 is_stmt 1              @ ../../Library/StdDriver/src/retarget.c:461:41
	ldrb	r1, [r0, #8]
.Ltmp55:
	@DEBUG_VALUE: ProcessHardFault:idx <- $r1
	.loc	1 0 41 is_stmt 0                @ ../../Library/StdDriver/src/retarget.c:0:41
	movs	r2, #31
	.loc	1 462 35 is_stmt 1              @ ../../Library/StdDriver/src/retarget.c:462:35
	ands	r2, r1
.Ltmp56:
	@DEBUG_VALUE: ProcessHardFault:bit <- $r2
	.loc	1 463 35                        @ ../../Library/StdDriver/src/retarget.c:463:35
	lsrs	r1, r1, #5
.Ltmp57:
	@DEBUG_VALUE: ProcessHardFault:idx <- $r1
	.loc	1 464 30                        @ ../../Library/StdDriver/src/retarget.c:464:30
	lsls	r1, r1, #2
.Ltmp58:
	.loc	1 0 30 is_stmt 0                @ ../../Library/StdDriver/src/retarget.c:0:30
	ldr	r3, __arm_cp.0_12
	.loc	1 464 30                        @ ../../Library/StdDriver/src/retarget.c:464:30
	ldr	r1, [r1, r3]
.Ltmp59:
	@DEBUG_VALUE: ProcessHardFault:s <- [DW_OP_constu 1, DW_OP_and, DW_OP_stack_value] undef
	.loc	1 465 102 is_stmt 1             @ ../../Library/StdDriver/src/retarget.c:465:102
	lsrs	r1, r2
	lsls	r1, r1, #31
	beq	.LBB0_55
.Ltmp60:
@ %bb.31:
	@DEBUG_VALUE: ProcessHardFault:taddr <- $r7
	@DEBUG_VALUE: ProcessHardFault:sp <- $r4
	@DEBUG_VALUE: ProcessHardFault:bit <- $r2
	@DEBUG_VALUE: ProcessHardFault:lr <- [DW_OP_LLVM_entry_value 1] $r0
	.loc	1 0 102 is_stmt 0               @ ../../Library/StdDriver/src/retarget.c:0:102
	ldr	r1, __arm_cp.0_14
	b	.LBB0_56
.Ltmp61:
.LBB0_32:
	@DEBUG_VALUE: ProcessHardFault:sp <- $r4
	@DEBUG_VALUE: ProcessHardFault:addr <- $r1
	@DEBUG_VALUE: ProcessHardFault:eFlag <- 0
	@DEBUG_VALUE: ProcessHardFault:lr <- [DW_OP_LLVM_entry_value 1] $r0
	movw	r3, #57344
.Ltmp62:
	.loc	1 356 26 is_stmt 1              @ ../../Library/StdDriver/src/retarget.c:356:26
	ands	r3, r2
	movw	r7, #24576
.Ltmp63:
	.loc	1 356 13 is_stmt 0              @ ../../Library/StdDriver/src/retarget.c:356:13
	cmp	r3, r7
	beq	.LBB0_35
.Ltmp64:
@ %bb.33:
	@DEBUG_VALUE: ProcessHardFault:sp <- $r4
	@DEBUG_VALUE: ProcessHardFault:addr <- $r1
	@DEBUG_VALUE: ProcessHardFault:eFlag <- 0
	@DEBUG_VALUE: ProcessHardFault:lr <- [DW_OP_LLVM_entry_value 1] $r0
	.loc	1 377 13 is_stmt 1              @ ../../Library/StdDriver/src/retarget.c:377:13
	cmp	r0, #9
	beq	.LBB0_51
.Ltmp65:
@ %bb.34:
	@DEBUG_VALUE: ProcessHardFault:sp <- $r4
	@DEBUG_VALUE: ProcessHardFault:addr <- $r1
	@DEBUG_VALUE: ProcessHardFault:eFlag <- 0
	@DEBUG_VALUE: ProcessHardFault:lr <- [DW_OP_LLVM_entry_value 1] $r0
	cmp	r0, #8
	bne	.LBB0_54
.Ltmp66:
.LBB0_35:
	@DEBUG_VALUE: ProcessHardFault:sp <- $r4
	@DEBUG_VALUE: ProcessHardFault:addr <- $r1
	@DEBUG_VALUE: ProcessHardFault:eFlag <- 0
	@DEBUG_VALUE: ProcessHardFault:lr <- [DW_OP_LLVM_entry_value 1] $r0
	@DEBUG_VALUE: ProcessHardFault:eFlag <- 3
	.loc	1 0 13 is_stmt 0                @ ../../Library/StdDriver/src/retarget.c:0:13
	movs	r0, #7
	ands	r0, r2
.Ltmp67:
	@DEBUG_VALUE: ProcessHardFault:rt <- $r0
	lsls	r3, r2, #26
	lsrs	r3, r3, #29
.Ltmp68:
	@DEBUG_VALUE: ProcessHardFault:rn <- $r3
	str	r3, [sp, #8]                    @ 4-byte Spill
.Ltmp69:
	@DEBUG_VALUE: ProcessHardFault:rn <- [DW_OP_plus_uconst 8] [$sp+0]
	lsls	r7, r3, #2
	@DEBUG_VALUE: ProcessHardFault:rn <- [DW_OP_plus_uconst 8] [$sp+0]
	ldr	r7, [r4, r7]
	str	r7, [sp, #12]                   @ 4-byte Spill
	lsls	r7, r2, #21
	lsrs	r7, r7, #27
.Ltmp70:
	@DEBUG_VALUE: ProcessHardFault:imm5 <- $r7
	ldr	r3, [sp, #12]                   @ 4-byte Reload
	adds	r7, r3, r7
.Ltmp71:
	@DEBUG_VALUE: ProcessHardFault:tdata <- undef
	@DEBUG_VALUE: ProcessHardFault:taddr <- $r7
	ldr	r3, [sp, #8]                    @ 4-byte Reload
.Ltmp72:
	@DEBUG_VALUE: ProcessHardFault:rn <- $r3
	cmp	r0, r3
	bne	.LBB0_44
.Ltmp73:
@ %bb.36:
	@DEBUG_VALUE: ProcessHardFault:taddr <- $r7
	@DEBUG_VALUE: ProcessHardFault:sp <- $r4
	@DEBUG_VALUE: ProcessHardFault:rn <- $r3
	@DEBUG_VALUE: ProcessHardFault:addr <- $r1
	@DEBUG_VALUE: ProcessHardFault:rt <- $r0
	@DEBUG_VALUE: ProcessHardFault:eFlag <- 3
	@DEBUG_VALUE: ProcessHardFault:lr <- [DW_OP_LLVM_entry_value 1] $r0
	str	r0, [sp]
.Ltmp74:
.LBB0_37:
	@DEBUG_VALUE: ProcessHardFault:taddr <- $r7
	@DEBUG_VALUE: ProcessHardFault:sp <- $r4
	@DEBUG_VALUE: ProcessHardFault:addr <- $r1
	@DEBUG_VALUE: ProcessHardFault:eFlag <- 3
	@DEBUG_VALUE: ProcessHardFault:lr <- [DW_OP_LLVM_entry_value 1] $r0
	str	r7, [sp, #4]
	movw	r0, #2048
	tst	r2, r0
	beq	.LBB0_42
.Ltmp75:
@ %bb.38:
	@DEBUG_VALUE: ProcessHardFault:taddr <- $r7
	@DEBUG_VALUE: ProcessHardFault:sp <- $r4
	@DEBUG_VALUE: ProcessHardFault:addr <- $r1
	@DEBUG_VALUE: ProcessHardFault:eFlag <- 3
	@DEBUG_VALUE: ProcessHardFault:lr <- [DW_OP_LLVM_entry_value 1] $r0
	ldr	r3, __arm_cp.0_4
	b	.LBB0_43
.Ltmp76:
.LBB0_39:
	@DEBUG_VALUE: ProcessHardFault:taddr <- $r7
	@DEBUG_VALUE: ProcessHardFault:sp <- $r4
	@DEBUG_VALUE: ProcessHardFault:rt <- $r3
	@DEBUG_VALUE: ProcessHardFault:addr <- $r1
	@DEBUG_VALUE: ProcessHardFault:rn <- $r0
	@DEBUG_VALUE: ProcessHardFault:eFlag <- 3
	@DEBUG_VALUE: ProcessHardFault:lr <- [DW_OP_LLVM_entry_value 1] $r0
	.loc	1 343 17 is_stmt 1              @ ../../Library/StdDriver/src/retarget.c:343:17
	lsls	r0, r3, #2
.Ltmp77:
	.loc	1 0 17 is_stmt 0                @ ../../Library/StdDriver/src/retarget.c:0:17
	b	.LBB0_45
.Ltmp78:
.LBB0_40:
	@DEBUG_VALUE: ProcessHardFault:taddr <- $r7
	@DEBUG_VALUE: ProcessHardFault:sp <- $r4
	@DEBUG_VALUE: ProcessHardFault:lr <- [DW_OP_LLVM_entry_value 1] $r0
	@DEBUG_VALUE: ProcessHardFault:i <- undef
	.loc	1 429 37 is_stmt 1              @ ../../Library/StdDriver/src/retarget.c:429:37
	ldrb	r1, [r0, #8]
.Ltmp79:
	@DEBUG_VALUE: ProcessHardFault:idx <- $r1
	.loc	1 0 37 is_stmt 0                @ ../../Library/StdDriver/src/retarget.c:0:37
	movs	r2, #31
	.loc	1 430 31 is_stmt 1              @ ../../Library/StdDriver/src/retarget.c:430:31
	ands	r2, r1
.Ltmp80:
	@DEBUG_VALUE: ProcessHardFault:bit <- $r2
	.loc	1 431 31                        @ ../../Library/StdDriver/src/retarget.c:431:31
	lsrs	r1, r1, #5
.Ltmp81:
	@DEBUG_VALUE: ProcessHardFault:idx <- $r1
	.loc	1 432 26                        @ ../../Library/StdDriver/src/retarget.c:432:26
	lsls	r1, r1, #2
.Ltmp82:
	.loc	1 0 26 is_stmt 0                @ ../../Library/StdDriver/src/retarget.c:0:26
	ldr	r3, __arm_cp.0_12
	.loc	1 432 26                        @ ../../Library/StdDriver/src/retarget.c:432:26
	ldr	r1, [r1, r3]
.Ltmp83:
	@DEBUG_VALUE: ProcessHardFault:s <- [DW_OP_constu 1, DW_OP_and, DW_OP_stack_value] undef
	.loc	1 433 77 is_stmt 1              @ ../../Library/StdDriver/src/retarget.c:433:77
	lsrs	r1, r2
	lsls	r1, r1, #31
	beq	.LBB0_47
.Ltmp84:
@ %bb.41:
	@DEBUG_VALUE: ProcessHardFault:taddr <- $r7
	@DEBUG_VALUE: ProcessHardFault:sp <- $r4
	@DEBUG_VALUE: ProcessHardFault:bit <- $r2
	@DEBUG_VALUE: ProcessHardFault:lr <- [DW_OP_LLVM_entry_value 1] $r0
	.loc	1 0 77 is_stmt 0                @ ../../Library/StdDriver/src/retarget.c:0:77
	ldr	r1, __arm_cp.0_14
	b	.LBB0_48
.Ltmp85:
.LBB0_42:
	@DEBUG_VALUE: ProcessHardFault:taddr <- $r7
	@DEBUG_VALUE: ProcessHardFault:sp <- $r4
	@DEBUG_VALUE: ProcessHardFault:addr <- $r1
	@DEBUG_VALUE: ProcessHardFault:eFlag <- 3
	@DEBUG_VALUE: ProcessHardFault:lr <- [DW_OP_LLVM_entry_value 1] $r0
	ldr	r3, __arm_cp.0_3
.Ltmp86:
.LBB0_43:
	@DEBUG_VALUE: ProcessHardFault:taddr <- $r7
	@DEBUG_VALUE: ProcessHardFault:sp <- $r4
	@DEBUG_VALUE: ProcessHardFault:addr <- $r1
	@DEBUG_VALUE: ProcessHardFault:eFlag <- 3
	@DEBUG_VALUE: ProcessHardFault:lr <- [DW_OP_LLVM_entry_value 1] $r0
	ldr	r0, __arm_cp.0_6
	bl	__2printf
.Ltmp87:
	b	.LBB0_12
.Ltmp88:
.LBB0_44:
	@DEBUG_VALUE: ProcessHardFault:taddr <- $r7
	@DEBUG_VALUE: ProcessHardFault:sp <- $r4
	@DEBUG_VALUE: ProcessHardFault:rn <- $r3
	@DEBUG_VALUE: ProcessHardFault:addr <- $r1
	@DEBUG_VALUE: ProcessHardFault:rt <- $r0
	@DEBUG_VALUE: ProcessHardFault:eFlag <- 3
	@DEBUG_VALUE: ProcessHardFault:lr <- [DW_OP_LLVM_entry_value 1] $r0
	lsls	r0, r0, #2
.Ltmp89:
.LBB0_45:
	@DEBUG_VALUE: ProcessHardFault:taddr <- $r7
	@DEBUG_VALUE: ProcessHardFault:sp <- $r4
	@DEBUG_VALUE: ProcessHardFault:addr <- $r1
	@DEBUG_VALUE: ProcessHardFault:eFlag <- 3
	@DEBUG_VALUE: ProcessHardFault:lr <- [DW_OP_LLVM_entry_value 1] $r0
	ldr	r0, [r4, r0]
.Ltmp90:
	@DEBUG_VALUE: ProcessHardFault:tdata <- $r0
	str	r0, [sp]
	str	r7, [sp, #4]
	movw	r0, #2048
.Ltmp91:
	tst	r2, r0
	beq	.LBB0_52
.Ltmp92:
.LBB0_46:
	@DEBUG_VALUE: ProcessHardFault:taddr <- $r7
	@DEBUG_VALUE: ProcessHardFault:sp <- $r4
	@DEBUG_VALUE: ProcessHardFault:addr <- $r1
	@DEBUG_VALUE: ProcessHardFault:eFlag <- 3
	@DEBUG_VALUE: ProcessHardFault:lr <- [DW_OP_LLVM_entry_value 1] $r0
	ldr	r3, __arm_cp.0_4
	b	.LBB0_53
.Ltmp93:
.LBB0_47:
	@DEBUG_VALUE: ProcessHardFault:taddr <- $r7
	@DEBUG_VALUE: ProcessHardFault:sp <- $r4
	@DEBUG_VALUE: ProcessHardFault:bit <- $r2
	@DEBUG_VALUE: ProcessHardFault:lr <- [DW_OP_LLVM_entry_value 1] $r0
	ldr	r1, __arm_cp.0_13
.Ltmp94:
.LBB0_48:
	@DEBUG_VALUE: ProcessHardFault:taddr <- $r7
	@DEBUG_VALUE: ProcessHardFault:sp <- $r4
	@DEBUG_VALUE: ProcessHardFault:bit <- $r2
	@DEBUG_VALUE: ProcessHardFault:lr <- [DW_OP_LLVM_entry_value 1] $r0
	.loc	1 433 113                       @ ../../Library/StdDriver/src/retarget.c:433:113
	ldr	r2, [r0]
.Ltmp95:
	.loc	1 433 21                        @ ../../Library/StdDriver/src/retarget.c:433:21
	ldr	r0, __arm_cp.0_16
	b	.LBB0_57
.Ltmp96:
.LBB0_49:
	@DEBUG_VALUE: ProcessHardFault:taddr <- $r7
	@DEBUG_VALUE: ProcessHardFault:sp <- $r4
	@DEBUG_VALUE: ProcessHardFault:bit <- $r2
	@DEBUG_VALUE: ProcessHardFault:lr <- [DW_OP_LLVM_entry_value 1] $r0
	.loc	1 0 21                          @ ../../Library/StdDriver/src/retarget.c:0:21
	ldr	r1, __arm_cp.0_13
.Ltmp97:
.LBB0_50:
	@DEBUG_VALUE: ProcessHardFault:taddr <- $r7
	@DEBUG_VALUE: ProcessHardFault:sp <- $r4
	@DEBUG_VALUE: ProcessHardFault:bit <- $r2
	@DEBUG_VALUE: ProcessHardFault:lr <- [DW_OP_LLVM_entry_value 1] $r0
	.loc	1 444 147 is_stmt 1             @ ../../Library/StdDriver/src/retarget.c:444:147
	ldr	r2, [r0]
.Ltmp98:
	.loc	1 444 21 is_stmt 0              @ ../../Library/StdDriver/src/retarget.c:444:21
	ldr	r0, __arm_cp.0_17
	b	.LBB0_57
.Ltmp99:
.LBB0_51:
	@DEBUG_VALUE: ProcessHardFault:sp <- $r4
	@DEBUG_VALUE: ProcessHardFault:addr <- $r1
	@DEBUG_VALUE: ProcessHardFault:eFlag <- 0
	@DEBUG_VALUE: ProcessHardFault:lr <- [DW_OP_LLVM_entry_value 1] $r0
	@DEBUG_VALUE: ProcessHardFault:eFlag <- 3
	.loc	1 407 17 is_stmt 1              @ ../../Library/StdDriver/src/retarget.c:407:17
	lsrs	r0, r2, #6
	movs	r3, #28
	ands	r3, r0
	ldr	r0, [r4, r3]
.Ltmp100:
	@DEBUG_VALUE: ProcessHardFault:tdata <- $r0
	.loc	1 403 21                        @ ../../Library/StdDriver/src/retarget.c:403:21
	uxtb	r3, r2
.Ltmp101:
	@DEBUG_VALUE: ProcessHardFault:imm8 <- $r3
	@DEBUG_VALUE: ProcessHardFault:rt <- undef
	.loc	1 406 23                        @ ../../Library/StdDriver/src/retarget.c:406:23
	adds	r7, r3, r1
.Ltmp102:
	@DEBUG_VALUE: ProcessHardFault:taddr <- $r7
	.loc	1 408 9                         @ ../../Library/StdDriver/src/retarget.c:408:9
	str	r0, [sp]
	str	r7, [sp, #4]
	.loc	1 409 9                         @ ../../Library/StdDriver/src/retarget.c:409:9
	lsls	r0, r2, #20
.Ltmp103:
	bmi	.LBB0_46
.Ltmp104:
.LBB0_52:
	@DEBUG_VALUE: ProcessHardFault:taddr <- $r7
	@DEBUG_VALUE: ProcessHardFault:sp <- $r4
	@DEBUG_VALUE: ProcessHardFault:addr <- $r1
	@DEBUG_VALUE: ProcessHardFault:eFlag <- 3
	@DEBUG_VALUE: ProcessHardFault:lr <- [DW_OP_LLVM_entry_value 1] $r0
	.loc	1 0 9 is_stmt 0                 @ ../../Library/StdDriver/src/retarget.c:0:9
	ldr	r3, __arm_cp.0_3
.Ltmp105:
.LBB0_53:
	@DEBUG_VALUE: ProcessHardFault:taddr <- $r7
	@DEBUG_VALUE: ProcessHardFault:sp <- $r4
	@DEBUG_VALUE: ProcessHardFault:addr <- $r1
	@DEBUG_VALUE: ProcessHardFault:eFlag <- 3
	@DEBUG_VALUE: ProcessHardFault:lr <- [DW_OP_LLVM_entry_value 1] $r0
	ldr	r0, __arm_cp.0_5
	bl	__2printf
.Ltmp106:
	b	.LBB0_12
.Ltmp107:
.LBB0_54:
	@DEBUG_VALUE: ProcessHardFault:sp <- $r4
	@DEBUG_VALUE: ProcessHardFault:addr <- $r1
	@DEBUG_VALUE: ProcessHardFault:eFlag <- 0
	@DEBUG_VALUE: ProcessHardFault:lr <- [DW_OP_LLVM_entry_value 1] $r0
	@DEBUG_VALUE: ProcessHardFault:eFlag <- 4
	.loc	1 414 9 is_stmt 1               @ ../../Library/StdDriver/src/retarget.c:414:9
	adr	r0, .LCPI0_7
	mov	r1, r2
.Ltmp108:
	bl	__2printf
	b	.LBB0_11
.Ltmp109:
.LBB0_55:
	@DEBUG_VALUE: ProcessHardFault:taddr <- $r7
	@DEBUG_VALUE: ProcessHardFault:sp <- $r4
	@DEBUG_VALUE: ProcessHardFault:bit <- $r2
	@DEBUG_VALUE: ProcessHardFault:lr <- [DW_OP_LLVM_entry_value 1] $r0
	.loc	1 0 9 is_stmt 0                 @ ../../Library/StdDriver/src/retarget.c:0:9
	ldr	r1, __arm_cp.0_13
.Ltmp110:
.LBB0_56:
	@DEBUG_VALUE: ProcessHardFault:taddr <- $r7
	@DEBUG_VALUE: ProcessHardFault:sp <- $r4
	@DEBUG_VALUE: ProcessHardFault:bit <- $r2
	@DEBUG_VALUE: ProcessHardFault:lr <- [DW_OP_LLVM_entry_value 1] $r0
	.loc	1 465 138 is_stmt 1             @ ../../Library/StdDriver/src/retarget.c:465:138
	ldr	r2, [r0]
.Ltmp111:
	.loc	1 465 25 is_stmt 0              @ ../../Library/StdDriver/src/retarget.c:465:25
	ldr	r0, __arm_cp.0_15
.Ltmp112:
.LBB0_57:
	@DEBUG_VALUE: ProcessHardFault:taddr <- $r7
	@DEBUG_VALUE: ProcessHardFault:sp <- $r4
	@DEBUG_VALUE: ProcessHardFault:lr <- [DW_OP_LLVM_entry_value 1] $r0
	.loc	1 0 0                           @ ../../Library/StdDriver/src/retarget.c:0:0
	bl	__2printf
.Ltmp113:
.LBB0_58:
	@DEBUG_VALUE: ProcessHardFault:taddr <- $r7
	@DEBUG_VALUE: ProcessHardFault:sp <- $r4
	@DEBUG_VALUE: ProcessHardFault:lr <- [DW_OP_LLVM_entry_value 1] $r0
	.loc	1 475 5 is_stmt 1               @ ../../Library/StdDriver/src/retarget.c:475:5
	bl	SCU_IRQHandler
	.loc	1 477 5                         @ ../../Library/StdDriver/src/retarget.c:477:5
	ldr	r0, __arm_cp.0_18
	bl	puts
.Ltmp114:
.LBB0_59:                               @ =>This Inner Loop Header: Depth=1
	@DEBUG_VALUE: ProcessHardFault:taddr <- $r7
	@DEBUG_VALUE: ProcessHardFault:sp <- $r4
	@DEBUG_VALUE: ProcessHardFault:lr <- [DW_OP_LLVM_entry_value 1] $r0
	.loc	1 0 5 is_stmt 0                 @ ../../Library/StdDriver/src/retarget.c:0:5
	b	.LBB0_59
.Ltmp115:
	.p2align	2
@ %bb.60:
__arm_cp.0_0:
	.long	.Lstr
.Lcpi_end0:
	.size	__arm_cp.0_0, .Lcpi_end0-__arm_cp.0_0
.LCPI0_1:
.Lstr.85:
	.asciz	"                       <<< HardFault >>>\000\000\000"
__arm_cp.0_2:
	.long	48811                           @ 0xbeab
.Lcpi_end1:
	.size	__arm_cp.0_2, .Lcpi_end1-__arm_cp.0_2
__arm_cp.0_3:
	.long	.L.str.77
.Lcpi_end2:
	.size	__arm_cp.0_3, .Lcpi_end2-__arm_cp.0_3
__arm_cp.0_4:
	.long	.L.str.76
.Lcpi_end3:
	.size	__arm_cp.0_4, .Lcpi_end3-__arm_cp.0_4
__arm_cp.0_5:
	.long	.L.str.78
.Lcpi_end4:
	.size	__arm_cp.0_5, .Lcpi_end4-__arm_cp.0_5
__arm_cp.0_6:
	.long	.L.str.75
.Lcpi_end5:
	.size	__arm_cp.0_6, .Lcpi_end5-__arm_cp.0_6
.LCPI0_7:
.L.str.79:
	.asciz	"  Unexpected instruction: 0x%04x \n\000"
.LCPI0_8:
.Lstr.87:
	.asciz	"  Execute BKPT without ICE connected\000\000\000"
__arm_cp.0_9:
	.long	.L.str.72
.Lcpi_end6:
	.size	__arm_cp.0_9, .Lcpi_end6-__arm_cp.0_9
__arm_cp.0_10:
	.long	.Lstr.88
.Lcpi_end7:
	.size	__arm_cp.0_10, .Lcpi_end7-__arm_cp.0_10
__arm_cp.0_11:
	.long	ip_tbl
.Lcpi_end8:
	.size	__arm_cp.0_11, .Lcpi_end8-__arm_cp.0_11
__arm_cp.0_12:
	.long	1073934336                      @ 0x4002f000
.Lcpi_end9:
	.size	__arm_cp.0_12, .Lcpi_end9-__arm_cp.0_12
__arm_cp.0_13:
	.long	.L.str.82
.Lcpi_end10:
	.size	__arm_cp.0_13, .Lcpi_end10-__arm_cp.0_13
__arm_cp.0_14:
	.long	.L.str.81
.Lcpi_end11:
	.size	__arm_cp.0_14, .Lcpi_end11-__arm_cp.0_14
__arm_cp.0_15:
	.long	.L.str.84
.Lcpi_end12:
	.size	__arm_cp.0_15, .Lcpi_end12-__arm_cp.0_15
__arm_cp.0_16:
	.long	.L.str.80
.Lcpi_end13:
	.size	__arm_cp.0_16, .Lcpi_end13-__arm_cp.0_16
__arm_cp.0_17:
	.long	.L.str.83
.Lcpi_end14:
	.size	__arm_cp.0_17, .Lcpi_end14-__arm_cp.0_17
__arm_cp.0_18:
	.long	.Lstr.86
.Lcpi_end15:
	.size	__arm_cp.0_18, .Lcpi_end15-__arm_cp.0_18
.Lfunc_end0:
	.size	ProcessHardFault, .Lfunc_end0-ProcessHardFault
	.cfi_endproc
	.cantunwind
	.fnend
                                        @ -- End function
	.section	.text.SH_Return,"ax",%progbits
	.hidden	SH_Return                       @ -- Begin function SH_Return
	.globl	SH_Return
	.p2align	1
	.type	SH_Return,%function
	.code	16                              @ @SH_Return
	.thumb_func
SH_Return:
.Lfunc_begin1:
	.loc	1 487 0 is_stmt 1               @ ../../Library/StdDriver/src/retarget.c:487:0
	.fnstart
	.cfi_startproc
@ %bb.0:
	@DEBUG_VALUE: SH_Return:n32In_R0 <- $r0
	@DEBUG_VALUE: SH_Return:n32In_R1 <- $r1
	@DEBUG_VALUE: SH_Return:pn32Out_R0 <- $r2
	movs	r0, #0
.Ltmp116:
	@DEBUG_VALUE: SH_Return:n32In_R0 <- [DW_OP_LLVM_entry_value 1] $r0
	.loc	1 488 5 prologue_end            @ ../../Library/StdDriver/src/retarget.c:488:5
	bx	lr
.Ltmp117:
.Lfunc_end1:
	.size	SH_Return, .Lfunc_end1-SH_Return
	.cfi_endproc
	.cantunwind
	.fnend
                                        @ -- End function
	.section	.text.SendChar_ToUART,"ax",%progbits
	.hidden	SendChar_ToUART                 @ -- Begin function SendChar_ToUART
	.globl	SendChar_ToUART
	.p2align	2
	.type	SendChar_ToUART,%function
	.code	16                              @ @SendChar_ToUART
	.thumb_func
SendChar_ToUART:
.Lfunc_begin2:
	.loc	1 505 0                         @ ../../Library/StdDriver/src/retarget.c:505:0
	.fnstart
	.cfi_startproc
@ %bb.0:
	@DEBUG_VALUE: SendChar_ToUART:ch <- $r0
	@DEBUG_VALUE: SendChar_ToUART:ch <- $r0
	movs	r1, #1
	lsls	r2, r1, #23
	ldr	r1, __arm_cp.2_0
.Ltmp118:
.LBB2_1:                                @ =>This Inner Loop Header: Depth=1
	@DEBUG_VALUE: SendChar_ToUART:ch <- $r0
	.loc	1 507 23 prologue_end           @ ../../Library/StdDriver/src/retarget.c:507:23
	ldr	r3, [r1, #24]
	.loc	1 507 5 is_stmt 0               @ ../../Library/StdDriver/src/retarget.c:507:5
	tst	r3, r2
	bne	.LBB2_1
.Ltmp119:
@ %bb.2:
	@DEBUG_VALUE: SendChar_ToUART:ch <- $r0
	.loc	1 508 21 is_stmt 1              @ ../../Library/StdDriver/src/retarget.c:508:21
	str	r0, [r1]
.Ltmp120:
	.loc	1 509 8                         @ ../../Library/StdDriver/src/retarget.c:509:8
	uxtb	r0, r0
.Ltmp121:
	@DEBUG_VALUE: SendChar_ToUART:ch <- [DW_OP_LLVM_entry_value 1] $r0
	.loc	1 509 8 is_stmt 0               @ ../../Library/StdDriver/src/retarget.c:509:8
	cmp	r0, #10
	bne	.LBB2_5
.Ltmp122:
.LBB2_3:                                @ =>This Inner Loop Header: Depth=1
	@DEBUG_VALUE: SendChar_ToUART:ch <- [DW_OP_LLVM_entry_value 1] $r0
	.loc	1 511 27 is_stmt 1              @ ../../Library/StdDriver/src/retarget.c:511:27
	ldr	r0, [r1, #24]
	.loc	1 511 9 is_stmt 0               @ ../../Library/StdDriver/src/retarget.c:511:9
	tst	r0, r2
	bne	.LBB2_3
.Ltmp123:
@ %bb.4:
	@DEBUG_VALUE: SendChar_ToUART:ch <- [DW_OP_LLVM_entry_value 1] $r0
	.loc	1 0 9                           @ ../../Library/StdDriver/src/retarget.c:0:9
	movs	r0, #13
	.loc	1 512 25 is_stmt 1              @ ../../Library/StdDriver/src/retarget.c:512:25
	str	r0, [r1]
.Ltmp124:
.LBB2_5:
	@DEBUG_VALUE: SendChar_ToUART:ch <- [DW_OP_LLVM_entry_value 1] $r0
	.loc	1 514 1                         @ ../../Library/StdDriver/src/retarget.c:514:1
	bx	lr
.Ltmp125:
	.p2align	2
@ %bb.6:
	.loc	1 0 1 is_stmt 0                 @ ../../Library/StdDriver/src/retarget.c:0:1
__arm_cp.2_0:
	.long	1342636032                      @ 0x50070000
.Lcpi_end16:
	.size	__arm_cp.2_0, .Lcpi_end16-__arm_cp.2_0
.Lfunc_end2:
	.size	SendChar_ToUART, .Lfunc_end2-SendChar_ToUART
	.cfi_endproc
	.cantunwind
	.fnend
                                        @ -- End function
	.section	.text.SendChar,"ax",%progbits
	.hidden	SendChar                        @ -- Begin function SendChar
	.globl	SendChar
	.p2align	1
	.type	SendChar,%function
	.code	16                              @ @SendChar
	.thumb_func
SendChar:
.Lfunc_begin3:
	.loc	1 582 0 is_stmt 1               @ ../../Library/StdDriver/src/retarget.c:582:0
	.fnstart
	.cfi_startproc
@ %bb.0:
	@DEBUG_VALUE: SendChar:ch <- $r0
	@DEBUG_VALUE: SendChar:ch <- $r0
	@DEBUG_VALUE: SendChar:ch <- $r0
	.save	{r7, lr}
	push	{r7, lr}
	.cfi_def_cfa_offset 8
	.cfi_offset lr, -4
	.cfi_offset r7, -8
.Ltmp126:
	.loc	1 612 5 prologue_end            @ ../../Library/StdDriver/src/retarget.c:612:5
	bl	SendChar_ToUART
.Ltmp127:
	@DEBUG_VALUE: SendChar:ch <- [DW_OP_LLVM_entry_value 1] $r0
	.loc	1 614 1                         @ ../../Library/StdDriver/src/retarget.c:614:1
	pop	{r7, pc}
.Ltmp128:
.Lfunc_end3:
	.size	SendChar, .Lfunc_end3-SendChar
	.cfi_endproc
	.cantunwind
	.fnend
                                        @ -- End function
	.section	.text.GetChar,"ax",%progbits
	.hidden	GetChar                         @ -- Begin function GetChar
	.globl	GetChar
	.p2align	2
	.type	GetChar,%function
	.code	16                              @ @GetChar
	.thumb_func
GetChar:
.Lfunc_begin4:
	.loc	1 626 0                         @ ../../Library/StdDriver/src/retarget.c:626:0
	.fnstart
	.cfi_startproc
@ %bb.0:
	ldr	r0, __arm_cp.4_0
.LBB4_1:                                @ =>This Inner Loop Header: Depth=1
.Ltmp129:
	.loc	1 665 25 prologue_end           @ ../../Library/StdDriver/src/retarget.c:665:25
	ldr	r1, [r0, #24]
.Ltmp130:
	.loc	1 665 12 is_stmt 0              @ ../../Library/StdDriver/src/retarget.c:665:12
	lsls	r1, r1, #17
	bmi	.LBB4_1
@ %bb.2:
.Ltmp131:
	.loc	1 667 39 is_stmt 1              @ ../../Library/StdDriver/src/retarget.c:667:39
	ldr	r0, [r0]
	.loc	1 667 13 is_stmt 0              @ ../../Library/StdDriver/src/retarget.c:667:13
	uxtb	r0, r0
	bx	lr
.Ltmp132:
	.p2align	2
@ %bb.3:
	.loc	1 0 13                          @ ../../Library/StdDriver/src/retarget.c:0:13
__arm_cp.4_0:
	.long	1342636032                      @ 0x50070000
.Lcpi_end17:
	.size	__arm_cp.4_0, .Lcpi_end17-__arm_cp.4_0
.Lfunc_end4:
	.size	GetChar, .Lfunc_end4-GetChar
	.cfi_endproc
	.cantunwind
	.fnend
                                        @ -- End function
	.section	.text.kbhit,"ax",%progbits
	.hidden	kbhit                           @ -- Begin function kbhit
	.globl	kbhit
	.p2align	2
	.type	kbhit,%function
	.code	16                              @ @kbhit
	.thumb_func
kbhit:
.Lfunc_begin5:
	.loc	1 686 0 is_stmt 1               @ ../../Library/StdDriver/src/retarget.c:686:0
	.fnstart
	.cfi_startproc
@ %bb.0:
	ldr	r0, __arm_cp.5_0
.Ltmp133:
	.loc	1 687 27 prologue_end           @ ../../Library/StdDriver/src/retarget.c:687:27
	ldr	r0, [r0]
	.loc	1 687 12 is_stmt 0              @ ../../Library/StdDriver/src/retarget.c:687:12
	lsls	r0, r0, #17
	lsrs	r0, r0, #31
	.loc	1 687 5                         @ ../../Library/StdDriver/src/retarget.c:687:5
	bx	lr
.Ltmp134:
	.p2align	2
@ %bb.1:
	.loc	1 0 5                           @ ../../Library/StdDriver/src/retarget.c:0:5
__arm_cp.5_0:
	.long	1342636056                      @ 0x50070018
.Lcpi_end18:
	.size	__arm_cp.5_0, .Lcpi_end18-__arm_cp.5_0
.Lfunc_end5:
	.size	kbhit, .Lfunc_end5-kbhit
	.cfi_endproc
	.cantunwind
	.fnend
                                        @ -- End function
	.section	.text.IsDebugFifoEmpty,"ax",%progbits
	.hidden	IsDebugFifoEmpty                @ -- Begin function IsDebugFifoEmpty
	.globl	IsDebugFifoEmpty
	.p2align	2
	.type	IsDebugFifoEmpty,%function
	.code	16                              @ @IsDebugFifoEmpty
	.thumb_func
IsDebugFifoEmpty:
.Lfunc_begin6:
	.loc	1 701 0 is_stmt 1               @ ../../Library/StdDriver/src/retarget.c:701:0
	.fnstart
	.cfi_startproc
@ %bb.0:
	ldr	r0, __arm_cp.6_0
.Ltmp135:
	.loc	1 702 26 prologue_end           @ ../../Library/StdDriver/src/retarget.c:702:26
	ldr	r0, [r0]
	.loc	1 702 63 is_stmt 0              @ ../../Library/StdDriver/src/retarget.c:702:63
	lsls	r0, r0, #3
	lsrs	r0, r0, #31
	.loc	1 702 5                         @ ../../Library/StdDriver/src/retarget.c:702:5
	bx	lr
.Ltmp136:
	.p2align	2
@ %bb.1:
	.loc	1 0 5                           @ ../../Library/StdDriver/src/retarget.c:0:5
__arm_cp.6_0:
	.long	1342636056                      @ 0x50070018
.Lcpi_end19:
	.size	__arm_cp.6_0, .Lcpi_end19-__arm_cp.6_0
.Lfunc_end6:
	.size	IsDebugFifoEmpty, .Lfunc_end6-IsDebugFifoEmpty
	.cfi_endproc
	.cantunwind
	.fnend
                                        @ -- End function
	.section	.text._ttywrch,"ax",%progbits
	.hidden	_ttywrch                        @ -- Begin function _ttywrch
	.globl	_ttywrch
	.p2align	1
	.type	_ttywrch,%function
	.code	16                              @ @_ttywrch
	.thumb_func
_ttywrch:
.Lfunc_begin7:
	.loc	1 716 0 is_stmt 1               @ ../../Library/StdDriver/src/retarget.c:716:0
	.fnstart
	.cfi_startproc
@ %bb.0:
	@DEBUG_VALUE: _ttywrch:ch <- $r0
	@DEBUG_VALUE: _ttywrch:ch <- $r0
	@DEBUG_VALUE: _ttywrch:ch <- $r0
	.save	{r7, lr}
	push	{r7, lr}
	.cfi_def_cfa_offset 8
	.cfi_offset lr, -4
	.cfi_offset r7, -8
.Ltmp137:
	.loc	1 717 5 prologue_end            @ ../../Library/StdDriver/src/retarget.c:717:5
	bl	SendChar
.Ltmp138:
	@DEBUG_VALUE: _ttywrch:ch <- [DW_OP_LLVM_entry_value 1] $r0
	.loc	1 718 5                         @ ../../Library/StdDriver/src/retarget.c:718:5
	pop	{r7, pc}
.Ltmp139:
.Lfunc_end7:
	.size	_ttywrch, .Lfunc_end7-_ttywrch
	.cfi_endproc
	.cantunwind
	.fnend
                                        @ -- End function
	.section	.text.fputc,"ax",%progbits
	.hidden	fputc                           @ -- Begin function fputc
	.globl	fputc
	.p2align	1
	.type	fputc,%function
	.code	16                              @ @fputc
	.thumb_func
fputc:
.Lfunc_begin8:
	.loc	1 741 0                         @ ../../Library/StdDriver/src/retarget.c:741:0
	.fnstart
	.cfi_startproc
@ %bb.0:
	@DEBUG_VALUE: fputc:ch <- $r0
	@DEBUG_VALUE: fputc:stream <- $r1
	.save	{r4, lr}
	push	{r4, lr}
	.cfi_def_cfa_offset 8
	.cfi_offset lr, -4
	.cfi_offset r4, -8
	mov	r4, r0
.Ltmp140:
	@DEBUG_VALUE: fputc:ch <- $r4
	.loc	1 742 5 prologue_end            @ ../../Library/StdDriver/src/retarget.c:742:5
	bl	SendChar
.Ltmp141:
	@DEBUG_VALUE: fputc:stream <- [DW_OP_LLVM_entry_value 1] $r1
	.loc	1 743 5                         @ ../../Library/StdDriver/src/retarget.c:743:5
	mov	r0, r4
.Ltmp142:
	@DEBUG_VALUE: fputc:ch <- $r0
	pop	{r4, pc}
.Ltmp143:
.Lfunc_end8:
	.size	fputc, .Lfunc_end8-fputc
	.cfi_endproc
	.cantunwind
	.fnend
                                        @ -- End function
	.section	.text.fgetc,"ax",%progbits
	.hidden	fgetc                           @ -- Begin function fgetc
	.globl	fgetc
	.p2align	1
	.type	fgetc,%function
	.code	16                              @ @fgetc
	.thumb_func
fgetc:
.Lfunc_begin9:
	.loc	1 791 0                         @ ../../Library/StdDriver/src/retarget.c:791:0
	.fnstart
	.cfi_startproc
@ %bb.0:
	@DEBUG_VALUE: fgetc:stream <- $r0
	.save	{r7, lr}
	push	{r7, lr}
	.cfi_def_cfa_offset 8
	.cfi_offset lr, -4
	.cfi_offset r7, -8
.Ltmp144:
	.loc	1 792 18 prologue_end           @ ../../Library/StdDriver/src/retarget.c:792:18
	bl	GetChar
.Ltmp145:
	@DEBUG_VALUE: fgetc:stream <- [DW_OP_LLVM_entry_value 1] $r0
	.loc	1 792 5 is_stmt 0               @ ../../Library/StdDriver/src/retarget.c:792:5
	pop	{r7, pc}
.Ltmp146:
.Lfunc_end9:
	.size	fgetc, .Lfunc_end9-fgetc
	.cfi_endproc
	.cantunwind
	.fnend
                                        @ -- End function
	.section	.text.ferror,"ax",%progbits
	.hidden	ferror                          @ -- Begin function ferror
	.globl	ferror
	.p2align	1
	.type	ferror,%function
	.code	16                              @ @ferror
	.thumb_func
ferror:
.Lfunc_begin10:
	.loc	1 811 0 is_stmt 1               @ ../../Library/StdDriver/src/retarget.c:811:0
	.fnstart
	.cfi_startproc
@ %bb.0:
	@DEBUG_VALUE: ferror:stream <- $r0
	movs	r0, #0
.Ltmp147:
	@DEBUG_VALUE: ferror:stream <- [DW_OP_LLVM_entry_value 1] $r0
	mvns	r0, r0
.Ltmp148:
	.loc	1 812 5 prologue_end            @ ../../Library/StdDriver/src/retarget.c:812:5
	bx	lr
.Ltmp149:
.Lfunc_end10:
	.size	ferror, .Lfunc_end10-ferror
	.cfi_endproc
	.cantunwind
	.fnend
                                        @ -- End function
	.type	.L.str,%object                  @ @.str
	.section	.rodata.str1.1,"aMS",%progbits,1
.L.str:
	.asciz	"SYS"
	.size	.L.str, 4

	.type	.L.str.1,%object                @ @.str.1
.L.str.1:
	.asciz	"CLK"
	.size	.L.str.1, 4

	.type	.L.str.2,%object                @ @.str.2
.L.str.2:
	.asciz	"INT"
	.size	.L.str.2, 4

	.type	.L.str.3,%object                @ @.str.3
.L.str.3:
	.asciz	"GPIOA"
	.size	.L.str.3, 6

	.type	.L.str.4,%object                @ @.str.4
.L.str.4:
	.asciz	"GPIOB"
	.size	.L.str.4, 6

	.type	.L.str.5,%object                @ @.str.5
.L.str.5:
	.asciz	"GPIOC"
	.size	.L.str.5, 6

	.type	.L.str.6,%object                @ @.str.6
.L.str.6:
	.asciz	"GPIOD"
	.size	.L.str.6, 6

	.type	.L.str.7,%object                @ @.str.7
.L.str.7:
	.asciz	"GPIOE"
	.size	.L.str.7, 6

	.type	.L.str.8,%object                @ @.str.8
.L.str.8:
	.asciz	"GPIOF"
	.size	.L.str.8, 6

	.type	.L.str.9,%object                @ @.str.9
.L.str.9:
	.asciz	"GPIOG"
	.size	.L.str.9, 6

	.type	.L.str.10,%object               @ @.str.10
.L.str.10:
	.asciz	"GPIOH"
	.size	.L.str.10, 6

	.type	.L.str.11,%object               @ @.str.11
.L.str.11:
	.asciz	"GPIO_DBCTL"
	.size	.L.str.11, 11

	.type	.L.str.12,%object               @ @.str.12
.L.str.12:
	.asciz	"PA"
	.size	.L.str.12, 3

	.type	.L.str.13,%object               @ @.str.13
.L.str.13:
	.asciz	"PB"
	.size	.L.str.13, 3

	.type	.L.str.14,%object               @ @.str.14
.L.str.14:
	.asciz	"PC"
	.size	.L.str.14, 3

	.type	.L.str.15,%object               @ @.str.15
.L.str.15:
	.asciz	"PD"
	.size	.L.str.15, 3

	.type	.L.str.16,%object               @ @.str.16
.L.str.16:
	.asciz	"PE"
	.size	.L.str.16, 3

	.type	.L.str.17,%object               @ @.str.17
.L.str.17:
	.asciz	"PF"
	.size	.L.str.17, 3

	.type	.L.str.18,%object               @ @.str.18
.L.str.18:
	.asciz	"PG"
	.size	.L.str.18, 3

	.type	.L.str.19,%object               @ @.str.19
.L.str.19:
	.asciz	"PH"
	.size	.L.str.19, 3

	.type	.L.str.20,%object               @ @.str.20
.L.str.20:
	.asciz	"PDMA0"
	.size	.L.str.20, 6

	.type	.L.str.21,%object               @ @.str.21
.L.str.21:
	.asciz	"PDMA1"
	.size	.L.str.21, 6

	.type	.L.str.22,%object               @ @.str.22
.L.str.22:
	.asciz	"USBH"
	.size	.L.str.22, 5

	.type	.L.str.23,%object               @ @.str.23
.L.str.23:
	.asciz	"FMC"
	.size	.L.str.23, 4

	.type	.L.str.24,%object               @ @.str.24
.L.str.24:
	.asciz	"SDH0"
	.size	.L.str.24, 5

	.type	.L.str.25,%object               @ @.str.25
.L.str.25:
	.asciz	"EBI"
	.size	.L.str.25, 4

	.type	.L.str.26,%object               @ @.str.26
.L.str.26:
	.asciz	"SCU"
	.size	.L.str.26, 4

	.type	.L.str.27,%object               @ @.str.27
.L.str.27:
	.asciz	"CRC"
	.size	.L.str.27, 4

	.type	.L.str.28,%object               @ @.str.28
.L.str.28:
	.asciz	"CRPT"
	.size	.L.str.28, 5

	.type	.L.str.29,%object               @ @.str.29
.L.str.29:
	.asciz	"WDT"
	.size	.L.str.29, 4

	.type	.L.str.30,%object               @ @.str.30
.L.str.30:
	.asciz	"WWDT"
	.size	.L.str.30, 5

	.type	.L.str.31,%object               @ @.str.31
.L.str.31:
	.asciz	"RTC"
	.size	.L.str.31, 4

	.type	.L.str.32,%object               @ @.str.32
.L.str.32:
	.asciz	"EADC"
	.size	.L.str.32, 5

	.type	.L.str.33,%object               @ @.str.33
.L.str.33:
	.asciz	"ACMP01"
	.size	.L.str.33, 7

	.type	.L.str.34,%object               @ @.str.34
.L.str.34:
	.asciz	"DAC0"
	.size	.L.str.34, 5

	.type	.L.str.35,%object               @ @.str.35
.L.str.35:
	.asciz	"DAC1"
	.size	.L.str.35, 5

	.type	.L.str.36,%object               @ @.str.36
.L.str.36:
	.asciz	"I2S0"
	.size	.L.str.36, 5

	.type	.L.str.37,%object               @ @.str.37
.L.str.37:
	.asciz	"OTG"
	.size	.L.str.37, 4

	.type	.L.str.38,%object               @ @.str.38
.L.str.38:
	.asciz	"TMR01"
	.size	.L.str.38, 6

	.type	.L.str.39,%object               @ @.str.39
.L.str.39:
	.asciz	"TMR23"
	.size	.L.str.39, 6

	.type	.L.str.40,%object               @ @.str.40
.L.str.40:
	.asciz	"EPWM0"
	.size	.L.str.40, 6

	.type	.L.str.41,%object               @ @.str.41
.L.str.41:
	.asciz	"EPWM1"
	.size	.L.str.41, 6

	.type	.L.str.42,%object               @ @.str.42
.L.str.42:
	.asciz	"BPWM0"
	.size	.L.str.42, 6

	.type	.L.str.43,%object               @ @.str.43
.L.str.43:
	.asciz	"BPWM1"
	.size	.L.str.43, 6

	.type	.L.str.44,%object               @ @.str.44
.L.str.44:
	.asciz	"QSPI0"
	.size	.L.str.44, 6

	.type	.L.str.45,%object               @ @.str.45
.L.str.45:
	.asciz	"SPI0"
	.size	.L.str.45, 5

	.type	.L.str.46,%object               @ @.str.46
.L.str.46:
	.asciz	"SPI1"
	.size	.L.str.46, 5

	.type	.L.str.47,%object               @ @.str.47
.L.str.47:
	.asciz	"SPI2"
	.size	.L.str.47, 5

	.type	.L.str.48,%object               @ @.str.48
.L.str.48:
	.asciz	"SPI3"
	.size	.L.str.48, 5

	.type	.L.str.49,%object               @ @.str.49
.L.str.49:
	.asciz	"UART0"
	.size	.L.str.49, 6

	.type	.L.str.50,%object               @ @.str.50
.L.str.50:
	.asciz	"UART1"
	.size	.L.str.50, 6

	.type	.L.str.51,%object               @ @.str.51
.L.str.51:
	.asciz	"UART2"
	.size	.L.str.51, 6

	.type	.L.str.52,%object               @ @.str.52
.L.str.52:
	.asciz	"UART3"
	.size	.L.str.52, 6

	.type	.L.str.53,%object               @ @.str.53
.L.str.53:
	.asciz	"UART4"
	.size	.L.str.53, 6

	.type	.L.str.54,%object               @ @.str.54
.L.str.54:
	.asciz	"UART5"
	.size	.L.str.54, 6

	.type	.L.str.55,%object               @ @.str.55
.L.str.55:
	.asciz	"I2C0"
	.size	.L.str.55, 5

	.type	.L.str.56,%object               @ @.str.56
.L.str.56:
	.asciz	"I2C1"
	.size	.L.str.56, 5

	.type	.L.str.57,%object               @ @.str.57
.L.str.57:
	.asciz	"I2C2"
	.size	.L.str.57, 5

	.type	.L.str.58,%object               @ @.str.58
.L.str.58:
	.asciz	"SC0"
	.size	.L.str.58, 4

	.type	.L.str.59,%object               @ @.str.59
.L.str.59:
	.asciz	"SC1"
	.size	.L.str.59, 4

	.type	.L.str.60,%object               @ @.str.60
.L.str.60:
	.asciz	"SC2"
	.size	.L.str.60, 4

	.type	.L.str.61,%object               @ @.str.61
.L.str.61:
	.asciz	"CAN0"
	.size	.L.str.61, 5

	.type	.L.str.62,%object               @ @.str.62
.L.str.62:
	.asciz	"QEI0"
	.size	.L.str.62, 5

	.type	.L.str.63,%object               @ @.str.63
.L.str.63:
	.asciz	"QEI1"
	.size	.L.str.63, 5

	.type	.L.str.64,%object               @ @.str.64
.L.str.64:
	.asciz	"ECAP0"
	.size	.L.str.64, 6

	.type	.L.str.65,%object               @ @.str.65
.L.str.65:
	.asciz	"ECAP1"
	.size	.L.str.65, 6

	.type	.L.str.66,%object               @ @.str.66
.L.str.66:
	.asciz	"TRNG"
	.size	.L.str.66, 5

	.type	.L.str.67,%object               @ @.str.67
.L.str.67:
	.asciz	"USBD"
	.size	.L.str.67, 5

	.type	.L.str.68,%object               @ @.str.68
.L.str.68:
	.asciz	"USCI0"
	.size	.L.str.68, 6

	.type	.L.str.69,%object               @ @.str.69
.L.str.69:
	.asciz	"USCI1"
	.size	.L.str.69, 6

	.hidden	ip_tbl                          @ @ip_tbl
	.type	ip_tbl,%object
	.section	.data.ip_tbl,"aw",%progbits
	.globl	ip_tbl
	.p2align	2
ip_tbl:
	.long	.L.str
	.long	1073741824                      @ 0x40000000
	.byte	0                               @ 0x0
	.zero	3
	.long	.L.str.1
	.long	1073742336                      @ 0x40000200
	.byte	0                               @ 0x0
	.zero	3
	.long	.L.str.2
	.long	1073742592                      @ 0x40000300
	.byte	0                               @ 0x0
	.zero	3
	.long	.L.str.3
	.long	1073758208                      @ 0x40004000
	.byte	224                             @ 0xe0
	.zero	3
	.long	.L.str.4
	.long	1073758272                      @ 0x40004040
	.byte	225                             @ 0xe1
	.zero	3
	.long	.L.str.5
	.long	1073758336                      @ 0x40004080
	.byte	226                             @ 0xe2
	.zero	3
	.long	.L.str.6
	.long	1073758400                      @ 0x400040c0
	.byte	227                             @ 0xe3
	.zero	3
	.long	.L.str.7
	.long	1073758464                      @ 0x40004100
	.byte	228                             @ 0xe4
	.zero	3
	.long	.L.str.8
	.long	1073758528                      @ 0x40004140
	.byte	229                             @ 0xe5
	.zero	3
	.long	.L.str.9
	.long	1073758592                      @ 0x40004180
	.byte	230                             @ 0xe6
	.zero	3
	.long	.L.str.10
	.long	1073758656                      @ 0x400041c0
	.byte	231                             @ 0xe7
	.zero	3
	.long	.L.str.11
	.long	1073759296                      @ 0x40004440
	.byte	0                               @ 0x0
	.zero	3
	.long	.L.str.12
	.long	1073760256                      @ 0x40004800
	.byte	224                             @ 0xe0
	.zero	3
	.long	.L.str.13
	.long	1073760320                      @ 0x40004840
	.byte	224                             @ 0xe0
	.zero	3
	.long	.L.str.14
	.long	1073760384                      @ 0x40004880
	.byte	224                             @ 0xe0
	.zero	3
	.long	.L.str.15
	.long	1073760448                      @ 0x400048c0
	.byte	224                             @ 0xe0
	.zero	3
	.long	.L.str.16
	.long	1073760512                      @ 0x40004900
	.byte	224                             @ 0xe0
	.zero	3
	.long	.L.str.17
	.long	1073760576                      @ 0x40004940
	.byte	224                             @ 0xe0
	.zero	3
	.long	.L.str.18
	.long	1073760640                      @ 0x40004980
	.byte	224                             @ 0xe0
	.zero	3
	.long	.L.str.19
	.long	1073760704                      @ 0x400049c0
	.byte	224                             @ 0xe0
	.zero	3
	.long	.L.str.20
	.long	1073774592                      @ 0x40008000
	.byte	0                               @ 0x0
	.zero	3
	.long	.L.str.21
	.long	1073840128                      @ 0x40018000
	.byte	24                              @ 0x18
	.zero	3
	.long	.L.str.22
	.long	1073778688                      @ 0x40009000
	.byte	9                               @ 0x9
	.zero	3
	.long	.L.str.23
	.long	1073790976                      @ 0x4000c000
	.byte	0                               @ 0x0
	.zero	3
	.long	.L.str.24
	.long	1073795072                      @ 0x4000d000
	.byte	13                              @ 0xd
	.zero	3
	.long	.L.str.25
	.long	1073807360                      @ 0x40010000
	.byte	16                              @ 0x10
	.zero	3
	.long	.L.str.26
	.long	1073934336                      @ 0x4002f000
	.byte	0                               @ 0x0
	.zero	3
	.long	.L.str.27
	.long	1073942528                      @ 0x40031000
	.byte	49                              @ 0x31
	.zero	3
	.long	.L.str.28
	.long	1073946624                      @ 0x40032000
	.byte	50                              @ 0x32
	.zero	3
	.long	.L.str.29
	.long	1074003968                      @ 0x40040000
	.byte	0                               @ 0x0
	.zero	3
	.long	.L.str.30
	.long	1074004224                      @ 0x40040100
	.byte	0                               @ 0x0
	.zero	3
	.long	.L.str.31
	.long	1074008064                      @ 0x40041000
	.byte	65                              @ 0x41
	.zero	3
	.long	.L.str.32
	.long	1074016256                      @ 0x40043000
	.byte	67                              @ 0x43
	.zero	3
	.long	.L.str.33
	.long	1074024448                      @ 0x40045000
	.byte	69                              @ 0x45
	.zero	3
	.long	.L.str.34
	.long	1074032640                      @ 0x40047000
	.byte	71                              @ 0x47
	.zero	3
	.long	.L.str.35
	.long	1074032704                      @ 0x40047040
	.byte	71                              @ 0x47
	.zero	3
	.long	.L.str.36
	.long	1074036736                      @ 0x40048000
	.byte	72                              @ 0x48
	.zero	3
	.long	.L.str.37
	.long	1074057216                      @ 0x4004d000
	.byte	77                              @ 0x4d
	.zero	3
	.long	.L.str.38
	.long	1074069504                      @ 0x40050000
	.byte	0                               @ 0x0
	.zero	3
	.long	.L.str.39
	.long	1074073600                      @ 0x40051000
	.byte	81                              @ 0x51
	.zero	3
	.long	.L.str.40
	.long	1074102272                      @ 0x40058000
	.byte	88                              @ 0x58
	.zero	3
	.long	.L.str.41
	.long	1074106368                      @ 0x40059000
	.byte	89                              @ 0x59
	.zero	3
	.long	.L.str.42
	.long	1074110464                      @ 0x4005a000
	.byte	90                              @ 0x5a
	.zero	3
	.long	.L.str.43
	.long	1074114560                      @ 0x4005b000
	.byte	91                              @ 0x5b
	.zero	3
	.long	.L.str.44
	.long	1074135040                      @ 0x40060000
	.byte	96                              @ 0x60
	.zero	3
	.long	.L.str.45
	.long	1074139136                      @ 0x40061000
	.byte	97                              @ 0x61
	.zero	3
	.long	.L.str.46
	.long	1074143232                      @ 0x40062000
	.byte	98                              @ 0x62
	.zero	3
	.long	.L.str.47
	.long	1074147328                      @ 0x40063000
	.byte	99                              @ 0x63
	.zero	3
	.long	.L.str.48
	.long	1074151424                      @ 0x40064000
	.byte	100                             @ 0x64
	.zero	3
	.long	.L.str.49
	.long	1074200576                      @ 0x40070000
	.byte	112                             @ 0x70
	.zero	3
	.long	.L.str.50
	.long	1074204672                      @ 0x40071000
	.byte	113                             @ 0x71
	.zero	3
	.long	.L.str.51
	.long	1074208768                      @ 0x40072000
	.byte	114                             @ 0x72
	.zero	3
	.long	.L.str.52
	.long	1074212864                      @ 0x40073000
	.byte	115                             @ 0x73
	.zero	3
	.long	.L.str.53
	.long	1074216960                      @ 0x40074000
	.byte	116                             @ 0x74
	.zero	3
	.long	.L.str.54
	.long	1074221056                      @ 0x40075000
	.byte	117                             @ 0x75
	.zero	3
	.long	.L.str.55
	.long	1074266112                      @ 0x40080000
	.byte	128                             @ 0x80
	.zero	3
	.long	.L.str.56
	.long	1074270208                      @ 0x40081000
	.byte	129                             @ 0x81
	.zero	3
	.long	.L.str.57
	.long	1074274304                      @ 0x40082000
	.byte	130                             @ 0x82
	.zero	3
	.long	.L.str.58
	.long	1074331648                      @ 0x40090000
	.byte	144                             @ 0x90
	.zero	3
	.long	.L.str.59
	.long	1074335744                      @ 0x40091000
	.byte	145                             @ 0x91
	.zero	3
	.long	.L.str.60
	.long	1074339840                      @ 0x40092000
	.byte	146                             @ 0x92
	.zero	3
	.long	.L.str.61
	.long	1074397184                      @ 0x400a0000
	.byte	160                             @ 0xa0
	.zero	3
	.long	.L.str.62
	.long	1074462720                      @ 0x400b0000
	.byte	176                             @ 0xb0
	.zero	3
	.long	.L.str.63
	.long	1074466816                      @ 0x400b1000
	.byte	177                             @ 0xb1
	.zero	3
	.long	.L.str.64
	.long	1074479104                      @ 0x400b4000
	.byte	180                             @ 0xb4
	.zero	3
	.long	.L.str.65
	.long	1074483200                      @ 0x400b5000
	.byte	181                             @ 0xb5
	.zero	3
	.long	.L.str.66
	.long	1074499584                      @ 0x400b9000
	.byte	185                             @ 0xb9
	.zero	3
	.long	.L.str.67
	.long	1074528256                      @ 0x400c0000
	.byte	192                             @ 0xc0
	.zero	3
	.long	.L.str.68
	.long	1074593792                      @ 0x400d0000
	.byte	208                             @ 0xd0
	.zero	3
	.long	.L.str.69
	.long	1074597888                      @ 0x400d1000
	.byte	209                             @ 0xd1
	.zero	3
	.long	0
	.long	1074601984                      @ 0x400d2000
	.byte	0                               @ 0x0
	.zero	3
	.size	ip_tbl, 852

	.type	.L.str.72,%object               @ @.str.72
	.section	.rodata.str1.1,"aMS",%progbits,1
.L.str.72:
	.asciz	"  Non-secure CPU try to fetch secure code in 0x%x\n"
	.size	.L.str.72, 51

	.type	.L.str.75,%object               @ @.str.75
.L.str.75:
	.asciz	"  [0x%08x] 0x%04x %s R%d [0x%x]\n"
	.size	.L.str.75, 33

	.type	.L.str.76,%object               @ @.str.76
.L.str.76:
	.asciz	"LDR"
	.size	.L.str.76, 4

	.type	.L.str.77,%object               @ @.str.77
.L.str.77:
	.asciz	"STR"
	.size	.L.str.77, 4

	.type	.L.str.78,%object               @ @.str.78
.L.str.78:
	.asciz	"  [0x%08x] 0x%04x %s 0x%x [0x%x]\n"
	.size	.L.str.78, 34

	.type	.L.str.80,%object               @ @.str.80
.L.str.80:
	.asciz	"  Illegal access to %s %s in Nonsecure code.\n"
	.size	.L.str.80, 46

	.type	.L.str.81,%object               @ @.str.81
.L.str.81:
	.asciz	"Nonsecure"
	.size	.L.str.81, 10

	.type	.L.str.82,%object               @ @.str.82
.L.str.82:
	.asciz	"Secure"
	.size	.L.str.82, 7

	.type	.L.str.83,%object               @ @.str.83
.L.str.83:
	.asciz	"  Illegal access to %s %s in Nonsecure code.\nIt may be set as secure IP here.\n"
	.size	.L.str.83, 79

	.type	.L.str.84,%object               @ @.str.84
.L.str.84:
	.asciz	"  Illegal to use Nonsecure address to access %s %s in Secure code\n"
	.size	.L.str.84, 67

	.hidden	__stdout                        @ @__stdout
	.type	__stdout,%object
	.section	.bss.__stdout,"aw",%nobits
	.globl	__stdout
	.p2align	2
__stdout:
	.zero	84
	.size	__stdout, 84

	.hidden	__stdin                         @ @__stdin
	.type	__stdin,%object
	.section	.bss.__stdin,"aw",%nobits
	.globl	__stdin
	.p2align	2
__stdin:
	.zero	84
	.size	__stdin, 84

	.type	.Lstr,%object                   @ @str
	.section	.rodata.str1.1,"aMS",%progbits,1
.Lstr:
	.asciz	"!!---------------------------------------------------------------!!"
	.size	.Lstr, 68

	.type	.Lstr.86,%object                @ @str.86
.Lstr.86:
	.asciz	"!!---------------------------------------------------------------!!"
	.size	.Lstr.86, 68

	.type	.Lstr.88,%object                @ @str.88
.Lstr.88:
	.asciz	"  Try to check NSC region or SAU settings."
	.size	.Lstr.88, 43

	.globl	_printf_percent
	.globl	_printf_flags
	.globl	_printf_widthprec
	.globl	_printf_pre_padding
	.globl	_printf_s
	.globl	_printf_x
	.globl	_printf_d
	.globl	_printf_int_dec
	.globl	_printf_longlong_hex
	.globl	_printf_str
	.hidden	_printf_percent
	.hidden	_printf_flags
	.hidden	_printf_widthprec
	.hidden	_printf_pre_padding
	.hidden	_printf_s
	.hidden	_printf_x
	.hidden	_printf_d
	.hidden	_printf_int_dec
	.hidden	_printf_longlong_hex
	.hidden	_printf_str
	.section	".note.GNU-stack","",%progbits
	.eabi_attribute	30, 1	@ Tag_ABI_optimization_goals
	.ARM_attribute	16, 1	@ Tag_AV_eba